ARM GAS  C:\Users\jacki\AppData\Local\Temp\ccVaAQ2T.s 			page 1


   1              		.cpu cortex-m4
   2              		.arch armv7e-m
   3              		.fpu fpv4-sp-d16
   4              		.eabi_attribute 27, 1
   5              		.eabi_attribute 28, 1
   6              		.eabi_attribute 20, 1
   7              		.eabi_attribute 21, 1
   8              		.eabi_attribute 23, 3
   9              		.eabi_attribute 24, 1
  10              		.eabi_attribute 25, 1
  11              		.eabi_attribute 26, 1
  12              		.eabi_attribute 30, 1
  13              		.eabi_attribute 34, 1
  14              		.eabi_attribute 18, 4
  15              		.file	"main.c"
  16              		.text
  17              	.Ltext0:
  18              		.cfi_sections	.debug_frame
  19              		.section	.text.Error_Handler,"ax",%progbits
  20              		.align	1
  21              		.global	Error_Handler
  22              		.syntax unified
  23              		.thumb
  24              		.thumb_func
  26              	Error_Handler:
  27              	.LFB132:
  28              		.file 1 "Core/Src/main.c"
   1:Core/Src/main.c **** /* USER CODE BEGIN Header */
   2:Core/Src/main.c **** /**
   3:Core/Src/main.c ****   ******************************************************************************
   4:Core/Src/main.c ****   * @file           : main.c
   5:Core/Src/main.c ****   * @brief          : Main program body
   6:Core/Src/main.c ****   ******************************************************************************
   7:Core/Src/main.c ****   * @attention
   8:Core/Src/main.c ****   *
   9:Core/Src/main.c ****   * Copyright (c) 2023 STMicroelectronics.
  10:Core/Src/main.c ****   * All rights reserved.
  11:Core/Src/main.c ****   *
  12:Core/Src/main.c ****   * This software is licensed under terms that can be found in the LICENSE file
  13:Core/Src/main.c ****   * in the root directory of this software component.
  14:Core/Src/main.c ****   * If no LICENSE file comes with this software, it is provided AS-IS.
  15:Core/Src/main.c ****   *
  16:Core/Src/main.c ****   ******************************************************************************
  17:Core/Src/main.c ****   */
  18:Core/Src/main.c **** /* USER CODE END Header */
  19:Core/Src/main.c **** /* Includes ------------------------------------------------------------------*/
  20:Core/Src/main.c **** #include "main.h"
  21:Core/Src/main.c **** #include "i2c.h"
  22:Core/Src/main.c **** #include "tim.h"
  23:Core/Src/main.c **** #include "usart.h"
  24:Core/Src/main.c **** #include "gpio.h"
  25:Core/Src/main.c **** 
  26:Core/Src/main.c **** /* Private includes ----------------------------------------------------------*/
  27:Core/Src/main.c **** /* USER CODE BEGIN Includes */
  28:Core/Src/main.c **** #include "BNO055.h"
  29:Core/Src/main.c **** #include "motor.h"
  30:Core/Src/main.c **** /* USER CODE END Includes */
ARM GAS  C:\Users\jacki\AppData\Local\Temp\ccVaAQ2T.s 			page 2


  31:Core/Src/main.c **** 
  32:Core/Src/main.c **** /* Private typedef -----------------------------------------------------------*/
  33:Core/Src/main.c **** /* USER CODE BEGIN PTD */
  34:Core/Src/main.c **** 
  35:Core/Src/main.c **** /* USER CODE END PTD */
  36:Core/Src/main.c **** 
  37:Core/Src/main.c **** /* Private define ------------------------------------------------------------*/
  38:Core/Src/main.c **** /* USER CODE BEGIN PD */
  39:Core/Src/main.c **** 
  40:Core/Src/main.c **** /* USER CODE END PD */
  41:Core/Src/main.c **** 
  42:Core/Src/main.c **** /* Private macro -------------------------------------------------------------*/
  43:Core/Src/main.c **** /* USER CODE BEGIN PM */
  44:Core/Src/main.c **** 
  45:Core/Src/main.c **** /* USER CODE END PM */
  46:Core/Src/main.c **** 
  47:Core/Src/main.c **** /* Private variables ---------------------------------------------------------*/
  48:Core/Src/main.c **** 
  49:Core/Src/main.c **** /* USER CODE BEGIN PV */
  50:Core/Src/main.c **** 
  51:Core/Src/main.c **** /* USER CODE END PV */
  52:Core/Src/main.c **** 
  53:Core/Src/main.c **** /* Private function prototypes -----------------------------------------------*/
  54:Core/Src/main.c **** void SystemClock_Config(void);
  55:Core/Src/main.c **** /* USER CODE BEGIN PFP */
  56:Core/Src/main.c **** 
  57:Core/Src/main.c **** /* USER CODE END PFP */
  58:Core/Src/main.c **** 
  59:Core/Src/main.c **** /* Private user code ---------------------------------------------------------*/
  60:Core/Src/main.c **** /* USER CODE BEGIN 0 */
  61:Core/Src/main.c **** 
  62:Core/Src/main.c **** /* Servo Motor Struct */
  63:Core/Src/main.c **** Servo_Config_t servoConfig;
  64:Core/Src/main.c **** Servo_Instance_t servoInstance;
  65:Core/Src/main.c **** 
  66:Core/Src/main.c **** /* Actuator Struct */
  67:Core/Src/main.c **** Actuator_Config_t actConfig;
  68:Core/Src/main.c **** Actuator_Instance_t actInstance;
  69:Core/Src/main.c **** 
  70:Core/Src/main.c **** /* DCMotor Struct */
  71:Core/Src/main.c **** DCMotor_Config_t dcMotorConfig;
  72:Core/Src/main.c **** DCMotor_Instance_t dcMotor;
  73:Core/Src/main.c **** 
  74:Core/Src/main.c **** /* Encoder Struct */
  75:Core/Src/main.c **** DCMotor_Encoder_Config_t encConfig;
  76:Core/Src/main.c **** DCMotor_Encoder_Instance_t encInstance;
  77:Core/Src/main.c **** 
  78:Core/Src/main.c **** /* General Motor Var */
  79:Core/Src/main.c **** Servo_Error servoError;
  80:Core/Src/main.c **** Actuator_Error actError;
  81:Core/Src/main.c **** DCMotor_Error dcError;
  82:Core/Src/main.c **** 
  83:Core/Src/main.c **** uint32_t encoderCnt = 0;
  84:Core/Src/main.c **** char motorDone = 0;
  85:Core/Src/main.c **** uint8_t uartBuf[4];
  86:Core/Src/main.c **** #define defaultValue (35525U)
  87:Core/Src/main.c **** uint8_t defaultPrint[] = "Please Enter Desired Angle: \n";
ARM GAS  C:\Users\jacki\AppData\Local\Temp\ccVaAQ2T.s 			page 3


  88:Core/Src/main.c **** volatile char inUART = 0;
  89:Core/Src/main.c **** const char HANDSHAKE = 0xAA;
  90:Core/Src/main.c **** int16_t userBalls = 0;
  91:Core/Src/main.c **** /* USER CODE END 0 */
  92:Core/Src/main.c **** 
  93:Core/Src/main.c **** /**
  94:Core/Src/main.c ****   * @brief  The application entry point.
  95:Core/Src/main.c ****   * @retval int
  96:Core/Src/main.c ****   */
  97:Core/Src/main.c **** int main(void)
  98:Core/Src/main.c **** {
  99:Core/Src/main.c ****   /* USER CODE BEGIN 1 */
 100:Core/Src/main.c **** 
 101:Core/Src/main.c ****   /* USER CODE END 1 */
 102:Core/Src/main.c **** 
 103:Core/Src/main.c ****   /* MCU Configuration--------------------------------------------------------*/
 104:Core/Src/main.c **** 
 105:Core/Src/main.c ****   /* Reset of all peripherals, Initializes the Flash interface and the Systick. */
 106:Core/Src/main.c ****   HAL_Init();
 107:Core/Src/main.c **** 
 108:Core/Src/main.c ****   /* USER CODE BEGIN Init */
 109:Core/Src/main.c **** 
 110:Core/Src/main.c ****   /* USER CODE END Init */
 111:Core/Src/main.c **** 
 112:Core/Src/main.c ****   /* Configure the system clock */
 113:Core/Src/main.c ****   SystemClock_Config();
 114:Core/Src/main.c **** 
 115:Core/Src/main.c ****   /* USER CODE BEGIN SysInit */
 116:Core/Src/main.c **** 
 117:Core/Src/main.c ****   /* USER CODE END SysInit */
 118:Core/Src/main.c **** 
 119:Core/Src/main.c ****   /* Initialize all configured peripherals */
 120:Core/Src/main.c ****   MX_GPIO_Init();
 121:Core/Src/main.c ****   MX_USART2_UART_Init();
 122:Core/Src/main.c ****   MX_I2C1_Init();
 123:Core/Src/main.c ****   MX_TIM5_Init();
 124:Core/Src/main.c ****   MX_TIM12_Init();
 125:Core/Src/main.c ****   MX_TIM3_Init();
 126:Core/Src/main.c ****   /* USER CODE BEGIN 2 */
 127:Core/Src/main.c **** 
 128:Core/Src/main.c ****   servoConfig.minDuty   = 0.025;
 129:Core/Src/main.c ****   servoConfig.maxDuty   = 0.125;
 130:Core/Src/main.c ****   servoConfig.minAngle  = -90;
 131:Core/Src/main.c ****   servoConfig.minAngle  = 90;
 132:Core/Src/main.c **** 
 133:Core/Src/main.c ****   servoInstance.htim    = &htim3;
 134:Core/Src/main.c ****   servoInstance.channel = TIM_CHANNEL_2;
 135:Core/Src/main.c ****   servoInstance.config  = &servoConfig;
 136:Core/Src/main.c **** 
 137:Core/Src/main.c ****   servoError = Servo_Init(&servoInstance);
 138:Core/Src/main.c ****   if(servoError != SERVO_OK){
 139:Core/Src/main.c ****     HAL_GPIO_WritePin(LD2_GPIO_Port, LD2_Pin, GPIO_PIN_SET);
 140:Core/Src/main.c ****     while(1);
 141:Core/Src/main.c ****   }
 142:Core/Src/main.c **** 
 143:Core/Src/main.c ****   actConfig.Min_Pulse          = 900;
 144:Core/Src/main.c ****   actConfig.Max_Pulse          = 2100;
ARM GAS  C:\Users\jacki\AppData\Local\Temp\ccVaAQ2T.s 			page 4


 145:Core/Src/main.c ****   actConfig.Min_Length         = 0;
 146:Core/Src/main.c ****   actConfig.Max_Length         = 27;
 147:Core/Src/main.c ****   actConfig.Desired_Max_Length = 0;
 148:Core/Src/main.c ****   actConfig.Desired_Max_Length = 16;
 149:Core/Src/main.c **** 
 150:Core/Src/main.c ****   actInstance.Act_Timer = &htim3;
 151:Core/Src/main.c ****   actInstance.Channel   = TIM_CHANNEL_1;
 152:Core/Src/main.c ****   actInstance.config    = &actConfig;
 153:Core/Src/main.c **** 
 154:Core/Src/main.c ****   actError = Actuator_Init(&actInstance);
 155:Core/Src/main.c ****   if(actError != ACTUATOR_OK){
 156:Core/Src/main.c ****     HAL_GPIO_WritePin(LD2_GPIO_Port, LD2_Pin, GPIO_PIN_SET);
 157:Core/Src/main.c ****     while(1);
 158:Core/Src/main.c ****   }
 159:Core/Src/main.c **** 
 160:Core/Src/main.c ****   Actuator_Init(&actInstance);
 161:Core/Src/main.c **** 
 162:Core/Src/main.c ****   Drive_Actuator(&actInstance, 8);
 163:Core/Src/main.c **** 
 164:Core/Src/main.c ****   Drive_Actuator(&actInstance, 16);
 165:Core/Src/main.c **** 
 166:Core/Src/main.c ****   Drive_Actuator(&actInstance, 19);
 167:Core/Src/main.c **** 
 168:Core/Src/main.c ****   dcMotorConfig.Min_Speed = 0;
 169:Core/Src/main.c ****   dcMotorConfig.Max_Speed = 100;
 170:Core/Src/main.c **** 
 171:Core/Src/main.c ****   dcMotor.DC_Timer      = &htim12;
 172:Core/Src/main.c ****   dcMotor.IN1_Channel   = TIM_CHANNEL_1;
 173:Core/Src/main.c ****   dcMotor.IN2_Channel   = TIM_CHANNEL_2;
 174:Core/Src/main.c ****   dcMotor.config        = &dcMotorConfig;
 175:Core/Src/main.c ****   
 176:Core/Src/main.c ****   DCMotor_Init(&dcMotor);
 177:Core/Src/main.c **** 
 178:Core/Src/main.c ****   encConfig.Current_Angle     = 0;
 179:Core/Src/main.c ****   encConfig.Default_Counter   = defaultValue;
 180:Core/Src/main.c ****   encConfig.Degree_Per_Pulse  = (float)360 / defaultValue;
 181:Core/Src/main.c ****   encConfig.Min_Angle         = -360;
 182:Core/Src/main.c ****   encConfig.Max_Angle         = 360;
 183:Core/Src/main.c **** 
 184:Core/Src/main.c ****   encInstance.Encoder_Timer   = &htim5;
 185:Core/Src/main.c ****   encInstance.encConfig       = &encConfig;
 186:Core/Src/main.c ****   encInstance.motorInstance   = &dcMotor;
 187:Core/Src/main.c **** 
 188:Core/Src/main.c ****   DCMotor_Encoder_Init(&encInstance);
 189:Core/Src/main.c **** 
 190:Core/Src/main.c ****   //Drive_DCMotor_Angle(&encInstance, -60);
 191:Core/Src/main.c **** 
 192:Core/Src/main.c ****   // __HAL_TIM_SET_COUNTER(&htim5, rotationValue);
 193:Core/Src/main.c ****   // HAL_TIM_Encoder_Start(&htim5, TIM_CHANNEL_ALL);
 194:Core/Src/main.c **** 
 195:Core/Src/main.c ****   // encoderCnt = __HAL_TIM_GET_COUNTER(&htim5);
 196:Core/Src/main.c ****   // dcError = Drive_DCMotor(&dcMotor, 45, CLOCKWISE);
 197:Core/Src/main.c ****   // if(dcError != DC_MOTOR_OK){
 198:Core/Src/main.c ****   //   HAL_GPIO_WritePin(LD2_GPIO_Port, LD2_Pin, GPIO_PIN_SET);
 199:Core/Src/main.c ****   //   while(1);
 200:Core/Src/main.c ****   // }
 201:Core/Src/main.c ****   // HAL_Delay(500);
ARM GAS  C:\Users\jacki\AppData\Local\Temp\ccVaAQ2T.s 			page 5


 202:Core/Src/main.c **** 
 203:Core/Src/main.c ****   /* USER CODE END 2 */
 204:Core/Src/main.c **** 
 205:Core/Src/main.c ****   /* Infinite loop */
 206:Core/Src/main.c ****   /* USER CODE BEGIN WHILE */
 207:Core/Src/main.c ****   while (1)
 208:Core/Src/main.c ****   {
 209:Core/Src/main.c ****     // encoderCnt = __HAL_TIM_GET_COUNTER(&htim5);
 210:Core/Src/main.c ****     // if(encoderCnt >= 44406){
 211:Core/Src/main.c ****     //   Stop_DCMotor(&dcMotor);
 212:Core/Src/main.c ****     //   HAL_Delay(1000);
 213:Core/Src/main.c ****     //   dcError = Drive_DCMotor(&dcMotor, 42, COUNTER_CLOCKWISE);
 214:Core/Src/main.c ****     //   while(!motorDone){
 215:Core/Src/main.c ****     //     encoderCnt = __HAL_TIM_GET_COUNTER(&htim5);
 216:Core/Src/main.c ****     //     if(encoderCnt <= 35525){
 217:Core/Src/main.c ****     //       Stop_DCMotor(&dcMotor);
 218:Core/Src/main.c ****     //       HAL_GPIO_WritePin(LD2_GPIO_Port, LD2_Pin, GPIO_PIN_SET);
 219:Core/Src/main.c ****     //       motorDone = 1;
 220:Core/Src/main.c ****     //     }
 221:Core/Src/main.c ****     //   }
 222:Core/Src/main.c ****     // }
 223:Core/Src/main.c **** 
 224:Core/Src/main.c ****   //HAL_UART_Transmit(&huart2, defaultPrint, sizeof(defaultPrint), 100);
 225:Core/Src/main.c ****   HAL_UART_Receive_IT(&huart2, uartBuf, sizeof(uartBuf));
 226:Core/Src/main.c ****   while(!inUART);
 227:Core/Src/main.c ****   inUART = 0;
 228:Core/Src/main.c ****   userBalls = atoi(uartBuf);
 229:Core/Src/main.c ****   Drive_DCMotor_Angle(&encInstance, userBalls);
 230:Core/Src/main.c ****   HAL_UART_Transmit(&huart2, &HANDSHAKE, 1, 100);
 231:Core/Src/main.c **** 
 232:Core/Src/main.c ****     /* USER CODE END WHILE */
 233:Core/Src/main.c **** 
 234:Core/Src/main.c ****     /* USER CODE BEGIN 3 */
 235:Core/Src/main.c ****   }
 236:Core/Src/main.c ****   /* USER CODE END 3 */
 237:Core/Src/main.c **** }
 238:Core/Src/main.c **** 
 239:Core/Src/main.c **** /**
 240:Core/Src/main.c ****   * @brief System Clock Configuration
 241:Core/Src/main.c ****   * @retval None
 242:Core/Src/main.c ****   */
 243:Core/Src/main.c **** void SystemClock_Config(void)
 244:Core/Src/main.c **** {
 245:Core/Src/main.c ****   RCC_OscInitTypeDef RCC_OscInitStruct = {0};
 246:Core/Src/main.c ****   RCC_ClkInitTypeDef RCC_ClkInitStruct = {0};
 247:Core/Src/main.c **** 
 248:Core/Src/main.c ****   /** Configure the main internal regulator output voltage
 249:Core/Src/main.c ****   */
 250:Core/Src/main.c ****   __HAL_RCC_PWR_CLK_ENABLE();
 251:Core/Src/main.c ****   __HAL_PWR_VOLTAGESCALING_CONFIG(PWR_REGULATOR_VOLTAGE_SCALE1);
 252:Core/Src/main.c **** 
 253:Core/Src/main.c ****   /** Initializes the RCC Oscillators according to the specified parameters
 254:Core/Src/main.c ****   * in the RCC_OscInitTypeDef structure.
 255:Core/Src/main.c ****   */
 256:Core/Src/main.c ****   RCC_OscInitStruct.OscillatorType = RCC_OSCILLATORTYPE_HSI;
 257:Core/Src/main.c ****   RCC_OscInitStruct.HSIState = RCC_HSI_ON;
 258:Core/Src/main.c ****   RCC_OscInitStruct.HSICalibrationValue = RCC_HSICALIBRATION_DEFAULT;
ARM GAS  C:\Users\jacki\AppData\Local\Temp\ccVaAQ2T.s 			page 6


 259:Core/Src/main.c ****   RCC_OscInitStruct.PLL.PLLState = RCC_PLL_ON;
 260:Core/Src/main.c ****   RCC_OscInitStruct.PLL.PLLSource = RCC_PLLSOURCE_HSI;
 261:Core/Src/main.c ****   RCC_OscInitStruct.PLL.PLLM = 8;
 262:Core/Src/main.c ****   RCC_OscInitStruct.PLL.PLLN = 180;
 263:Core/Src/main.c ****   RCC_OscInitStruct.PLL.PLLP = RCC_PLLP_DIV2;
 264:Core/Src/main.c ****   RCC_OscInitStruct.PLL.PLLQ = 2;
 265:Core/Src/main.c ****   RCC_OscInitStruct.PLL.PLLR = 2;
 266:Core/Src/main.c ****   if (HAL_RCC_OscConfig(&RCC_OscInitStruct) != HAL_OK)
 267:Core/Src/main.c ****   {
 268:Core/Src/main.c ****     Error_Handler();
 269:Core/Src/main.c ****   }
 270:Core/Src/main.c **** 
 271:Core/Src/main.c ****   /** Activate the Over-Drive mode
 272:Core/Src/main.c ****   */
 273:Core/Src/main.c ****   if (HAL_PWREx_EnableOverDrive() != HAL_OK)
 274:Core/Src/main.c ****   {
 275:Core/Src/main.c ****     Error_Handler();
 276:Core/Src/main.c ****   }
 277:Core/Src/main.c **** 
 278:Core/Src/main.c ****   /** Initializes the CPU, AHB and APB buses clocks
 279:Core/Src/main.c ****   */
 280:Core/Src/main.c ****   RCC_ClkInitStruct.ClockType = RCC_CLOCKTYPE_HCLK|RCC_CLOCKTYPE_SYSCLK
 281:Core/Src/main.c ****                               |RCC_CLOCKTYPE_PCLK1|RCC_CLOCKTYPE_PCLK2;
 282:Core/Src/main.c ****   RCC_ClkInitStruct.SYSCLKSource = RCC_SYSCLKSOURCE_PLLCLK;
 283:Core/Src/main.c ****   RCC_ClkInitStruct.AHBCLKDivider = RCC_SYSCLK_DIV1;
 284:Core/Src/main.c ****   RCC_ClkInitStruct.APB1CLKDivider = RCC_HCLK_DIV4;
 285:Core/Src/main.c ****   RCC_ClkInitStruct.APB2CLKDivider = RCC_HCLK_DIV2;
 286:Core/Src/main.c **** 
 287:Core/Src/main.c ****   if (HAL_RCC_ClockConfig(&RCC_ClkInitStruct, FLASH_LATENCY_5) != HAL_OK)
 288:Core/Src/main.c ****   {
 289:Core/Src/main.c ****     Error_Handler();
 290:Core/Src/main.c ****   }
 291:Core/Src/main.c **** }
 292:Core/Src/main.c **** 
 293:Core/Src/main.c **** /* USER CODE BEGIN 4 */
 294:Core/Src/main.c **** 
 295:Core/Src/main.c **** /* USER CODE END 4 */
 296:Core/Src/main.c **** 
 297:Core/Src/main.c **** /**
 298:Core/Src/main.c ****   * @brief  This function is executed in case of error occurrence.
 299:Core/Src/main.c ****   * @retval None
 300:Core/Src/main.c ****   */
 301:Core/Src/main.c **** void Error_Handler(void)
 302:Core/Src/main.c **** {
  29              		.loc 1 302 1 view -0
  30              		.cfi_startproc
  31              		@ Volatile: function does not return.
  32              		@ args = 0, pretend = 0, frame = 0
  33              		@ frame_needed = 0, uses_anonymous_args = 0
  34              		@ link register save eliminated.
 303:Core/Src/main.c ****   /* USER CODE BEGIN Error_Handler_Debug */
 304:Core/Src/main.c ****   /* User can add his own implementation to report the HAL error return state */
 305:Core/Src/main.c ****   __disable_irq();
  35              		.loc 1 305 3 view .LVU1
  36              	.LBB4:
  37              	.LBI4:
  38              		.file 2 "Drivers/CMSIS/Include/cmsis_gcc.h"
ARM GAS  C:\Users\jacki\AppData\Local\Temp\ccVaAQ2T.s 			page 7


   1:Drivers/CMSIS/Include/cmsis_gcc.h **** /**************************************************************************//**
   2:Drivers/CMSIS/Include/cmsis_gcc.h ****  * @file     cmsis_gcc.h
   3:Drivers/CMSIS/Include/cmsis_gcc.h ****  * @brief    CMSIS compiler GCC header file
   4:Drivers/CMSIS/Include/cmsis_gcc.h ****  * @version  V5.0.4
   5:Drivers/CMSIS/Include/cmsis_gcc.h ****  * @date     09. April 2018
   6:Drivers/CMSIS/Include/cmsis_gcc.h ****  ******************************************************************************/
   7:Drivers/CMSIS/Include/cmsis_gcc.h **** /*
   8:Drivers/CMSIS/Include/cmsis_gcc.h ****  * Copyright (c) 2009-2018 Arm Limited. All rights reserved.
   9:Drivers/CMSIS/Include/cmsis_gcc.h ****  *
  10:Drivers/CMSIS/Include/cmsis_gcc.h ****  * SPDX-License-Identifier: Apache-2.0
  11:Drivers/CMSIS/Include/cmsis_gcc.h ****  *
  12:Drivers/CMSIS/Include/cmsis_gcc.h ****  * Licensed under the Apache License, Version 2.0 (the License); you may
  13:Drivers/CMSIS/Include/cmsis_gcc.h ****  * not use this file except in compliance with the License.
  14:Drivers/CMSIS/Include/cmsis_gcc.h ****  * You may obtain a copy of the License at
  15:Drivers/CMSIS/Include/cmsis_gcc.h ****  *
  16:Drivers/CMSIS/Include/cmsis_gcc.h ****  * www.apache.org/licenses/LICENSE-2.0
  17:Drivers/CMSIS/Include/cmsis_gcc.h ****  *
  18:Drivers/CMSIS/Include/cmsis_gcc.h ****  * Unless required by applicable law or agreed to in writing, software
  19:Drivers/CMSIS/Include/cmsis_gcc.h ****  * distributed under the License is distributed on an AS IS BASIS, WITHOUT
  20:Drivers/CMSIS/Include/cmsis_gcc.h ****  * WARRANTIES OR CONDITIONS OF ANY KIND, either express or implied.
  21:Drivers/CMSIS/Include/cmsis_gcc.h ****  * See the License for the specific language governing permissions and
  22:Drivers/CMSIS/Include/cmsis_gcc.h ****  * limitations under the License.
  23:Drivers/CMSIS/Include/cmsis_gcc.h ****  */
  24:Drivers/CMSIS/Include/cmsis_gcc.h **** 
  25:Drivers/CMSIS/Include/cmsis_gcc.h **** #ifndef __CMSIS_GCC_H
  26:Drivers/CMSIS/Include/cmsis_gcc.h **** #define __CMSIS_GCC_H
  27:Drivers/CMSIS/Include/cmsis_gcc.h **** 
  28:Drivers/CMSIS/Include/cmsis_gcc.h **** /* ignore some GCC warnings */
  29:Drivers/CMSIS/Include/cmsis_gcc.h **** #pragma GCC diagnostic push
  30:Drivers/CMSIS/Include/cmsis_gcc.h **** #pragma GCC diagnostic ignored "-Wsign-conversion"
  31:Drivers/CMSIS/Include/cmsis_gcc.h **** #pragma GCC diagnostic ignored "-Wconversion"
  32:Drivers/CMSIS/Include/cmsis_gcc.h **** #pragma GCC diagnostic ignored "-Wunused-parameter"
  33:Drivers/CMSIS/Include/cmsis_gcc.h **** 
  34:Drivers/CMSIS/Include/cmsis_gcc.h **** /* Fallback for __has_builtin */
  35:Drivers/CMSIS/Include/cmsis_gcc.h **** #ifndef __has_builtin
  36:Drivers/CMSIS/Include/cmsis_gcc.h ****   #define __has_builtin(x) (0)
  37:Drivers/CMSIS/Include/cmsis_gcc.h **** #endif
  38:Drivers/CMSIS/Include/cmsis_gcc.h **** 
  39:Drivers/CMSIS/Include/cmsis_gcc.h **** /* CMSIS compiler specific defines */
  40:Drivers/CMSIS/Include/cmsis_gcc.h **** #ifndef   __ASM
  41:Drivers/CMSIS/Include/cmsis_gcc.h ****   #define __ASM                                  __asm
  42:Drivers/CMSIS/Include/cmsis_gcc.h **** #endif
  43:Drivers/CMSIS/Include/cmsis_gcc.h **** #ifndef   __INLINE
  44:Drivers/CMSIS/Include/cmsis_gcc.h ****   #define __INLINE                               inline
  45:Drivers/CMSIS/Include/cmsis_gcc.h **** #endif
  46:Drivers/CMSIS/Include/cmsis_gcc.h **** #ifndef   __STATIC_INLINE
  47:Drivers/CMSIS/Include/cmsis_gcc.h ****   #define __STATIC_INLINE                        static inline
  48:Drivers/CMSIS/Include/cmsis_gcc.h **** #endif
  49:Drivers/CMSIS/Include/cmsis_gcc.h **** #ifndef   __STATIC_FORCEINLINE                 
  50:Drivers/CMSIS/Include/cmsis_gcc.h ****   #define __STATIC_FORCEINLINE                   __attribute__((always_inline)) static inline
  51:Drivers/CMSIS/Include/cmsis_gcc.h **** #endif                                           
  52:Drivers/CMSIS/Include/cmsis_gcc.h **** #ifndef   __NO_RETURN
  53:Drivers/CMSIS/Include/cmsis_gcc.h ****   #define __NO_RETURN                            __attribute__((__noreturn__))
  54:Drivers/CMSIS/Include/cmsis_gcc.h **** #endif
  55:Drivers/CMSIS/Include/cmsis_gcc.h **** #ifndef   __USED
  56:Drivers/CMSIS/Include/cmsis_gcc.h ****   #define __USED                                 __attribute__((used))
  57:Drivers/CMSIS/Include/cmsis_gcc.h **** #endif
ARM GAS  C:\Users\jacki\AppData\Local\Temp\ccVaAQ2T.s 			page 8


  58:Drivers/CMSIS/Include/cmsis_gcc.h **** #ifndef   __WEAK
  59:Drivers/CMSIS/Include/cmsis_gcc.h ****   #define __WEAK                                 __attribute__((weak))
  60:Drivers/CMSIS/Include/cmsis_gcc.h **** #endif
  61:Drivers/CMSIS/Include/cmsis_gcc.h **** #ifndef   __PACKED
  62:Drivers/CMSIS/Include/cmsis_gcc.h ****   #define __PACKED                               __attribute__((packed, aligned(1)))
  63:Drivers/CMSIS/Include/cmsis_gcc.h **** #endif
  64:Drivers/CMSIS/Include/cmsis_gcc.h **** #ifndef   __PACKED_STRUCT
  65:Drivers/CMSIS/Include/cmsis_gcc.h ****   #define __PACKED_STRUCT                        struct __attribute__((packed, aligned(1)))
  66:Drivers/CMSIS/Include/cmsis_gcc.h **** #endif
  67:Drivers/CMSIS/Include/cmsis_gcc.h **** #ifndef   __PACKED_UNION
  68:Drivers/CMSIS/Include/cmsis_gcc.h ****   #define __PACKED_UNION                         union __attribute__((packed, aligned(1)))
  69:Drivers/CMSIS/Include/cmsis_gcc.h **** #endif
  70:Drivers/CMSIS/Include/cmsis_gcc.h **** #ifndef   __UNALIGNED_UINT32        /* deprecated */
  71:Drivers/CMSIS/Include/cmsis_gcc.h ****   #pragma GCC diagnostic push
  72:Drivers/CMSIS/Include/cmsis_gcc.h ****   #pragma GCC diagnostic ignored "-Wpacked"
  73:Drivers/CMSIS/Include/cmsis_gcc.h ****   #pragma GCC diagnostic ignored "-Wattributes"
  74:Drivers/CMSIS/Include/cmsis_gcc.h ****   struct __attribute__((packed)) T_UINT32 { uint32_t v; };
  75:Drivers/CMSIS/Include/cmsis_gcc.h ****   #pragma GCC diagnostic pop
  76:Drivers/CMSIS/Include/cmsis_gcc.h ****   #define __UNALIGNED_UINT32(x)                  (((struct T_UINT32 *)(x))->v)
  77:Drivers/CMSIS/Include/cmsis_gcc.h **** #endif
  78:Drivers/CMSIS/Include/cmsis_gcc.h **** #ifndef   __UNALIGNED_UINT16_WRITE
  79:Drivers/CMSIS/Include/cmsis_gcc.h ****   #pragma GCC diagnostic push
  80:Drivers/CMSIS/Include/cmsis_gcc.h ****   #pragma GCC diagnostic ignored "-Wpacked"
  81:Drivers/CMSIS/Include/cmsis_gcc.h ****   #pragma GCC diagnostic ignored "-Wattributes"
  82:Drivers/CMSIS/Include/cmsis_gcc.h ****   __PACKED_STRUCT T_UINT16_WRITE { uint16_t v; };
  83:Drivers/CMSIS/Include/cmsis_gcc.h ****   #pragma GCC diagnostic pop
  84:Drivers/CMSIS/Include/cmsis_gcc.h ****   #define __UNALIGNED_UINT16_WRITE(addr, val)    (void)((((struct T_UINT16_WRITE *)(void *)(addr))-
  85:Drivers/CMSIS/Include/cmsis_gcc.h **** #endif
  86:Drivers/CMSIS/Include/cmsis_gcc.h **** #ifndef   __UNALIGNED_UINT16_READ
  87:Drivers/CMSIS/Include/cmsis_gcc.h ****   #pragma GCC diagnostic push
  88:Drivers/CMSIS/Include/cmsis_gcc.h ****   #pragma GCC diagnostic ignored "-Wpacked"
  89:Drivers/CMSIS/Include/cmsis_gcc.h ****   #pragma GCC diagnostic ignored "-Wattributes"
  90:Drivers/CMSIS/Include/cmsis_gcc.h ****   __PACKED_STRUCT T_UINT16_READ { uint16_t v; };
  91:Drivers/CMSIS/Include/cmsis_gcc.h ****   #pragma GCC diagnostic pop
  92:Drivers/CMSIS/Include/cmsis_gcc.h ****   #define __UNALIGNED_UINT16_READ(addr)          (((const struct T_UINT16_READ *)(const void *)(add
  93:Drivers/CMSIS/Include/cmsis_gcc.h **** #endif
  94:Drivers/CMSIS/Include/cmsis_gcc.h **** #ifndef   __UNALIGNED_UINT32_WRITE
  95:Drivers/CMSIS/Include/cmsis_gcc.h ****   #pragma GCC diagnostic push
  96:Drivers/CMSIS/Include/cmsis_gcc.h ****   #pragma GCC diagnostic ignored "-Wpacked"
  97:Drivers/CMSIS/Include/cmsis_gcc.h ****   #pragma GCC diagnostic ignored "-Wattributes"
  98:Drivers/CMSIS/Include/cmsis_gcc.h ****   __PACKED_STRUCT T_UINT32_WRITE { uint32_t v; };
  99:Drivers/CMSIS/Include/cmsis_gcc.h ****   #pragma GCC diagnostic pop
 100:Drivers/CMSIS/Include/cmsis_gcc.h ****   #define __UNALIGNED_UINT32_WRITE(addr, val)    (void)((((struct T_UINT32_WRITE *)(void *)(addr))-
 101:Drivers/CMSIS/Include/cmsis_gcc.h **** #endif
 102:Drivers/CMSIS/Include/cmsis_gcc.h **** #ifndef   __UNALIGNED_UINT32_READ
 103:Drivers/CMSIS/Include/cmsis_gcc.h ****   #pragma GCC diagnostic push
 104:Drivers/CMSIS/Include/cmsis_gcc.h ****   #pragma GCC diagnostic ignored "-Wpacked"
 105:Drivers/CMSIS/Include/cmsis_gcc.h ****   #pragma GCC diagnostic ignored "-Wattributes"
 106:Drivers/CMSIS/Include/cmsis_gcc.h ****   __PACKED_STRUCT T_UINT32_READ { uint32_t v; };
 107:Drivers/CMSIS/Include/cmsis_gcc.h ****   #pragma GCC diagnostic pop
 108:Drivers/CMSIS/Include/cmsis_gcc.h ****   #define __UNALIGNED_UINT32_READ(addr)          (((const struct T_UINT32_READ *)(const void *)(add
 109:Drivers/CMSIS/Include/cmsis_gcc.h **** #endif
 110:Drivers/CMSIS/Include/cmsis_gcc.h **** #ifndef   __ALIGNED
 111:Drivers/CMSIS/Include/cmsis_gcc.h ****   #define __ALIGNED(x)                           __attribute__((aligned(x)))
 112:Drivers/CMSIS/Include/cmsis_gcc.h **** #endif
 113:Drivers/CMSIS/Include/cmsis_gcc.h **** #ifndef   __RESTRICT
 114:Drivers/CMSIS/Include/cmsis_gcc.h ****   #define __RESTRICT                             __restrict
ARM GAS  C:\Users\jacki\AppData\Local\Temp\ccVaAQ2T.s 			page 9


 115:Drivers/CMSIS/Include/cmsis_gcc.h **** #endif
 116:Drivers/CMSIS/Include/cmsis_gcc.h **** 
 117:Drivers/CMSIS/Include/cmsis_gcc.h **** 
 118:Drivers/CMSIS/Include/cmsis_gcc.h **** /* ###########################  Core Function Access  ########################### */
 119:Drivers/CMSIS/Include/cmsis_gcc.h **** /** \ingroup  CMSIS_Core_FunctionInterface
 120:Drivers/CMSIS/Include/cmsis_gcc.h ****     \defgroup CMSIS_Core_RegAccFunctions CMSIS Core Register Access Functions
 121:Drivers/CMSIS/Include/cmsis_gcc.h ****   @{
 122:Drivers/CMSIS/Include/cmsis_gcc.h ****  */
 123:Drivers/CMSIS/Include/cmsis_gcc.h **** 
 124:Drivers/CMSIS/Include/cmsis_gcc.h **** /**
 125:Drivers/CMSIS/Include/cmsis_gcc.h ****   \brief   Enable IRQ Interrupts
 126:Drivers/CMSIS/Include/cmsis_gcc.h ****   \details Enables IRQ interrupts by clearing the I-bit in the CPSR.
 127:Drivers/CMSIS/Include/cmsis_gcc.h ****            Can only be executed in Privileged modes.
 128:Drivers/CMSIS/Include/cmsis_gcc.h ****  */
 129:Drivers/CMSIS/Include/cmsis_gcc.h **** __STATIC_FORCEINLINE void __enable_irq(void)
 130:Drivers/CMSIS/Include/cmsis_gcc.h **** {
 131:Drivers/CMSIS/Include/cmsis_gcc.h ****   __ASM volatile ("cpsie i" : : : "memory");
 132:Drivers/CMSIS/Include/cmsis_gcc.h **** }
 133:Drivers/CMSIS/Include/cmsis_gcc.h **** 
 134:Drivers/CMSIS/Include/cmsis_gcc.h **** 
 135:Drivers/CMSIS/Include/cmsis_gcc.h **** /**
 136:Drivers/CMSIS/Include/cmsis_gcc.h ****   \brief   Disable IRQ Interrupts
 137:Drivers/CMSIS/Include/cmsis_gcc.h ****   \details Disables IRQ interrupts by setting the I-bit in the CPSR.
 138:Drivers/CMSIS/Include/cmsis_gcc.h ****            Can only be executed in Privileged modes.
 139:Drivers/CMSIS/Include/cmsis_gcc.h ****  */
 140:Drivers/CMSIS/Include/cmsis_gcc.h **** __STATIC_FORCEINLINE void __disable_irq(void)
  39              		.loc 2 140 27 view .LVU2
  40              	.LBB5:
 141:Drivers/CMSIS/Include/cmsis_gcc.h **** {
 142:Drivers/CMSIS/Include/cmsis_gcc.h ****   __ASM volatile ("cpsid i" : : : "memory");
  41              		.loc 2 142 3 view .LVU3
  42              		.syntax unified
  43              	@ 142 "Drivers/CMSIS/Include/cmsis_gcc.h" 1
  44 0000 72B6     		cpsid i
  45              	@ 0 "" 2
  46              		.thumb
  47              		.syntax unified
  48              	.L2:
  49              	.LBE5:
  50              	.LBE4:
 306:Core/Src/main.c ****   while (1)
  51              		.loc 1 306 3 discriminator 1 view .LVU4
 307:Core/Src/main.c ****   {
 308:Core/Src/main.c ****   }
  52              		.loc 1 308 3 discriminator 1 view .LVU5
 306:Core/Src/main.c ****   while (1)
  53              		.loc 1 306 9 discriminator 1 view .LVU6
  54 0002 FEE7     		b	.L2
  55              		.cfi_endproc
  56              	.LFE132:
  58              		.section	.text.SystemClock_Config,"ax",%progbits
  59              		.align	1
  60              		.global	SystemClock_Config
  61              		.syntax unified
  62              		.thumb
  63              		.thumb_func
  65              	SystemClock_Config:
ARM GAS  C:\Users\jacki\AppData\Local\Temp\ccVaAQ2T.s 			page 10


  66              	.LFB131:
 244:Core/Src/main.c ****   RCC_OscInitTypeDef RCC_OscInitStruct = {0};
  67              		.loc 1 244 1 view -0
  68              		.cfi_startproc
  69              		@ args = 0, pretend = 0, frame = 80
  70              		@ frame_needed = 0, uses_anonymous_args = 0
  71 0000 00B5     		push	{lr}
  72              		.cfi_def_cfa_offset 4
  73              		.cfi_offset 14, -4
  74 0002 95B0     		sub	sp, sp, #84
  75              		.cfi_def_cfa_offset 88
 245:Core/Src/main.c ****   RCC_ClkInitTypeDef RCC_ClkInitStruct = {0};
  76              		.loc 1 245 3 view .LVU8
 245:Core/Src/main.c ****   RCC_ClkInitTypeDef RCC_ClkInitStruct = {0};
  77              		.loc 1 245 22 is_stmt 0 view .LVU9
  78 0004 3422     		movs	r2, #52
  79 0006 0021     		movs	r1, #0
  80 0008 07A8     		add	r0, sp, #28
  81 000a FFF7FEFF 		bl	memset
  82              	.LVL0:
 246:Core/Src/main.c **** 
  83              		.loc 1 246 3 is_stmt 1 view .LVU10
 246:Core/Src/main.c **** 
  84              		.loc 1 246 22 is_stmt 0 view .LVU11
  85 000e 0023     		movs	r3, #0
  86 0010 0293     		str	r3, [sp, #8]
  87 0012 0393     		str	r3, [sp, #12]
  88 0014 0493     		str	r3, [sp, #16]
  89 0016 0593     		str	r3, [sp, #20]
  90 0018 0693     		str	r3, [sp, #24]
 250:Core/Src/main.c ****   __HAL_PWR_VOLTAGESCALING_CONFIG(PWR_REGULATOR_VOLTAGE_SCALE1);
  91              		.loc 1 250 3 is_stmt 1 view .LVU12
  92              	.LBB6:
 250:Core/Src/main.c ****   __HAL_PWR_VOLTAGESCALING_CONFIG(PWR_REGULATOR_VOLTAGE_SCALE1);
  93              		.loc 1 250 3 view .LVU13
  94 001a 0093     		str	r3, [sp]
 250:Core/Src/main.c ****   __HAL_PWR_VOLTAGESCALING_CONFIG(PWR_REGULATOR_VOLTAGE_SCALE1);
  95              		.loc 1 250 3 view .LVU14
  96 001c 224A     		ldr	r2, .L11
  97 001e 116C     		ldr	r1, [r2, #64]
  98 0020 41F08051 		orr	r1, r1, #268435456
  99 0024 1164     		str	r1, [r2, #64]
 250:Core/Src/main.c ****   __HAL_PWR_VOLTAGESCALING_CONFIG(PWR_REGULATOR_VOLTAGE_SCALE1);
 100              		.loc 1 250 3 view .LVU15
 101 0026 126C     		ldr	r2, [r2, #64]
 102 0028 02F08052 		and	r2, r2, #268435456
 103 002c 0092     		str	r2, [sp]
 250:Core/Src/main.c ****   __HAL_PWR_VOLTAGESCALING_CONFIG(PWR_REGULATOR_VOLTAGE_SCALE1);
 104              		.loc 1 250 3 view .LVU16
 105 002e 009A     		ldr	r2, [sp]
 106              	.LBE6:
 250:Core/Src/main.c ****   __HAL_PWR_VOLTAGESCALING_CONFIG(PWR_REGULATOR_VOLTAGE_SCALE1);
 107              		.loc 1 250 3 view .LVU17
 251:Core/Src/main.c **** 
 108              		.loc 1 251 3 view .LVU18
 109              	.LBB7:
 251:Core/Src/main.c **** 
ARM GAS  C:\Users\jacki\AppData\Local\Temp\ccVaAQ2T.s 			page 11


 110              		.loc 1 251 3 view .LVU19
 111 0030 0193     		str	r3, [sp, #4]
 251:Core/Src/main.c **** 
 112              		.loc 1 251 3 view .LVU20
 113 0032 1E4A     		ldr	r2, .L11+4
 114 0034 1168     		ldr	r1, [r2]
 115 0036 41F44041 		orr	r1, r1, #49152
 116 003a 1160     		str	r1, [r2]
 251:Core/Src/main.c **** 
 117              		.loc 1 251 3 view .LVU21
 118 003c 1268     		ldr	r2, [r2]
 119 003e 02F44042 		and	r2, r2, #49152
 120 0042 0192     		str	r2, [sp, #4]
 251:Core/Src/main.c **** 
 121              		.loc 1 251 3 view .LVU22
 122 0044 019A     		ldr	r2, [sp, #4]
 123              	.LBE7:
 251:Core/Src/main.c **** 
 124              		.loc 1 251 3 view .LVU23
 256:Core/Src/main.c ****   RCC_OscInitStruct.HSIState = RCC_HSI_ON;
 125              		.loc 1 256 3 view .LVU24
 256:Core/Src/main.c ****   RCC_OscInitStruct.HSIState = RCC_HSI_ON;
 126              		.loc 1 256 36 is_stmt 0 view .LVU25
 127 0046 0222     		movs	r2, #2
 128 0048 0792     		str	r2, [sp, #28]
 257:Core/Src/main.c ****   RCC_OscInitStruct.HSICalibrationValue = RCC_HSICALIBRATION_DEFAULT;
 129              		.loc 1 257 3 is_stmt 1 view .LVU26
 257:Core/Src/main.c ****   RCC_OscInitStruct.HSICalibrationValue = RCC_HSICALIBRATION_DEFAULT;
 130              		.loc 1 257 30 is_stmt 0 view .LVU27
 131 004a 0121     		movs	r1, #1
 132 004c 0A91     		str	r1, [sp, #40]
 258:Core/Src/main.c ****   RCC_OscInitStruct.PLL.PLLState = RCC_PLL_ON;
 133              		.loc 1 258 3 is_stmt 1 view .LVU28
 258:Core/Src/main.c ****   RCC_OscInitStruct.PLL.PLLState = RCC_PLL_ON;
 134              		.loc 1 258 41 is_stmt 0 view .LVU29
 135 004e 1021     		movs	r1, #16
 136 0050 0B91     		str	r1, [sp, #44]
 259:Core/Src/main.c ****   RCC_OscInitStruct.PLL.PLLSource = RCC_PLLSOURCE_HSI;
 137              		.loc 1 259 3 is_stmt 1 view .LVU30
 259:Core/Src/main.c ****   RCC_OscInitStruct.PLL.PLLSource = RCC_PLLSOURCE_HSI;
 138              		.loc 1 259 34 is_stmt 0 view .LVU31
 139 0052 0D92     		str	r2, [sp, #52]
 260:Core/Src/main.c ****   RCC_OscInitStruct.PLL.PLLM = 8;
 140              		.loc 1 260 3 is_stmt 1 view .LVU32
 260:Core/Src/main.c ****   RCC_OscInitStruct.PLL.PLLM = 8;
 141              		.loc 1 260 35 is_stmt 0 view .LVU33
 142 0054 0E93     		str	r3, [sp, #56]
 261:Core/Src/main.c ****   RCC_OscInitStruct.PLL.PLLN = 180;
 143              		.loc 1 261 3 is_stmt 1 view .LVU34
 261:Core/Src/main.c ****   RCC_OscInitStruct.PLL.PLLN = 180;
 144              		.loc 1 261 30 is_stmt 0 view .LVU35
 145 0056 0823     		movs	r3, #8
 146 0058 0F93     		str	r3, [sp, #60]
 262:Core/Src/main.c ****   RCC_OscInitStruct.PLL.PLLP = RCC_PLLP_DIV2;
 147              		.loc 1 262 3 is_stmt 1 view .LVU36
 262:Core/Src/main.c ****   RCC_OscInitStruct.PLL.PLLP = RCC_PLLP_DIV2;
 148              		.loc 1 262 30 is_stmt 0 view .LVU37
ARM GAS  C:\Users\jacki\AppData\Local\Temp\ccVaAQ2T.s 			page 12


 149 005a B423     		movs	r3, #180
 150 005c 1093     		str	r3, [sp, #64]
 263:Core/Src/main.c ****   RCC_OscInitStruct.PLL.PLLQ = 2;
 151              		.loc 1 263 3 is_stmt 1 view .LVU38
 263:Core/Src/main.c ****   RCC_OscInitStruct.PLL.PLLQ = 2;
 152              		.loc 1 263 30 is_stmt 0 view .LVU39
 153 005e 1192     		str	r2, [sp, #68]
 264:Core/Src/main.c ****   RCC_OscInitStruct.PLL.PLLR = 2;
 154              		.loc 1 264 3 is_stmt 1 view .LVU40
 264:Core/Src/main.c ****   RCC_OscInitStruct.PLL.PLLR = 2;
 155              		.loc 1 264 30 is_stmt 0 view .LVU41
 156 0060 1292     		str	r2, [sp, #72]
 265:Core/Src/main.c ****   if (HAL_RCC_OscConfig(&RCC_OscInitStruct) != HAL_OK)
 157              		.loc 1 265 3 is_stmt 1 view .LVU42
 265:Core/Src/main.c ****   if (HAL_RCC_OscConfig(&RCC_OscInitStruct) != HAL_OK)
 158              		.loc 1 265 30 is_stmt 0 view .LVU43
 159 0062 1392     		str	r2, [sp, #76]
 266:Core/Src/main.c ****   {
 160              		.loc 1 266 3 is_stmt 1 view .LVU44
 266:Core/Src/main.c ****   {
 161              		.loc 1 266 7 is_stmt 0 view .LVU45
 162 0064 07A8     		add	r0, sp, #28
 163 0066 FFF7FEFF 		bl	HAL_RCC_OscConfig
 164              	.LVL1:
 266:Core/Src/main.c ****   {
 165              		.loc 1 266 6 view .LVU46
 166 006a B0B9     		cbnz	r0, .L8
 273:Core/Src/main.c ****   {
 167              		.loc 1 273 3 is_stmt 1 view .LVU47
 273:Core/Src/main.c ****   {
 168              		.loc 1 273 7 is_stmt 0 view .LVU48
 169 006c FFF7FEFF 		bl	HAL_PWREx_EnableOverDrive
 170              	.LVL2:
 273:Core/Src/main.c ****   {
 171              		.loc 1 273 6 view .LVU49
 172 0070 A8B9     		cbnz	r0, .L9
 280:Core/Src/main.c ****                               |RCC_CLOCKTYPE_PCLK1|RCC_CLOCKTYPE_PCLK2;
 173              		.loc 1 280 3 is_stmt 1 view .LVU50
 280:Core/Src/main.c ****                               |RCC_CLOCKTYPE_PCLK1|RCC_CLOCKTYPE_PCLK2;
 174              		.loc 1 280 31 is_stmt 0 view .LVU51
 175 0072 0F23     		movs	r3, #15
 176 0074 0293     		str	r3, [sp, #8]
 282:Core/Src/main.c ****   RCC_ClkInitStruct.AHBCLKDivider = RCC_SYSCLK_DIV1;
 177              		.loc 1 282 3 is_stmt 1 view .LVU52
 282:Core/Src/main.c ****   RCC_ClkInitStruct.AHBCLKDivider = RCC_SYSCLK_DIV1;
 178              		.loc 1 282 34 is_stmt 0 view .LVU53
 179 0076 0223     		movs	r3, #2
 180 0078 0393     		str	r3, [sp, #12]
 283:Core/Src/main.c ****   RCC_ClkInitStruct.APB1CLKDivider = RCC_HCLK_DIV4;
 181              		.loc 1 283 3 is_stmt 1 view .LVU54
 283:Core/Src/main.c ****   RCC_ClkInitStruct.APB1CLKDivider = RCC_HCLK_DIV4;
 182              		.loc 1 283 35 is_stmt 0 view .LVU55
 183 007a 0023     		movs	r3, #0
 184 007c 0493     		str	r3, [sp, #16]
 284:Core/Src/main.c ****   RCC_ClkInitStruct.APB2CLKDivider = RCC_HCLK_DIV2;
 185              		.loc 1 284 3 is_stmt 1 view .LVU56
 284:Core/Src/main.c ****   RCC_ClkInitStruct.APB2CLKDivider = RCC_HCLK_DIV2;
ARM GAS  C:\Users\jacki\AppData\Local\Temp\ccVaAQ2T.s 			page 13


 186              		.loc 1 284 36 is_stmt 0 view .LVU57
 187 007e 4FF4A053 		mov	r3, #5120
 188 0082 0593     		str	r3, [sp, #20]
 285:Core/Src/main.c **** 
 189              		.loc 1 285 3 is_stmt 1 view .LVU58
 285:Core/Src/main.c **** 
 190              		.loc 1 285 36 is_stmt 0 view .LVU59
 191 0084 4FF48053 		mov	r3, #4096
 192 0088 0693     		str	r3, [sp, #24]
 287:Core/Src/main.c ****   {
 193              		.loc 1 287 3 is_stmt 1 view .LVU60
 287:Core/Src/main.c ****   {
 194              		.loc 1 287 7 is_stmt 0 view .LVU61
 195 008a 0521     		movs	r1, #5
 196 008c 02A8     		add	r0, sp, #8
 197 008e FFF7FEFF 		bl	HAL_RCC_ClockConfig
 198              	.LVL3:
 287:Core/Src/main.c ****   {
 199              		.loc 1 287 6 view .LVU62
 200 0092 30B9     		cbnz	r0, .L10
 291:Core/Src/main.c **** 
 201              		.loc 1 291 1 view .LVU63
 202 0094 15B0     		add	sp, sp, #84
 203              		.cfi_remember_state
 204              		.cfi_def_cfa_offset 4
 205              		@ sp needed
 206 0096 5DF804FB 		ldr	pc, [sp], #4
 207              	.L8:
 208              		.cfi_restore_state
 268:Core/Src/main.c ****   }
 209              		.loc 1 268 5 is_stmt 1 view .LVU64
 210 009a FFF7FEFF 		bl	Error_Handler
 211              	.LVL4:
 212              	.L9:
 275:Core/Src/main.c ****   }
 213              		.loc 1 275 5 view .LVU65
 214 009e FFF7FEFF 		bl	Error_Handler
 215              	.LVL5:
 216              	.L10:
 289:Core/Src/main.c ****   }
 217              		.loc 1 289 5 view .LVU66
 218 00a2 FFF7FEFF 		bl	Error_Handler
 219              	.LVL6:
 220              	.L12:
 221 00a6 00BF     		.align	2
 222              	.L11:
 223 00a8 00380240 		.word	1073887232
 224 00ac 00700040 		.word	1073770496
 225              		.cfi_endproc
 226              	.LFE131:
 228              		.section	.text.main,"ax",%progbits
 229              		.align	1
 230              		.global	main
 231              		.syntax unified
 232              		.thumb
 233              		.thumb_func
 235              	main:
ARM GAS  C:\Users\jacki\AppData\Local\Temp\ccVaAQ2T.s 			page 14


 236              	.LFB130:
  98:Core/Src/main.c ****   /* USER CODE BEGIN 1 */
 237              		.loc 1 98 1 view -0
 238              		.cfi_startproc
 239              		@ Volatile: function does not return.
 240              		@ args = 0, pretend = 0, frame = 0
 241              		@ frame_needed = 0, uses_anonymous_args = 0
 242 0000 08B5     		push	{r3, lr}
 243              		.cfi_def_cfa_offset 8
 244              		.cfi_offset 3, -8
 245              		.cfi_offset 14, -4
 106:Core/Src/main.c **** 
 246              		.loc 1 106 3 view .LVU68
 247 0002 FFF7FEFF 		bl	HAL_Init
 248              	.LVL7:
 113:Core/Src/main.c **** 
 249              		.loc 1 113 3 view .LVU69
 250 0006 FFF7FEFF 		bl	SystemClock_Config
 251              	.LVL8:
 120:Core/Src/main.c ****   MX_USART2_UART_Init();
 252              		.loc 1 120 3 view .LVU70
 253 000a FFF7FEFF 		bl	MX_GPIO_Init
 254              	.LVL9:
 121:Core/Src/main.c ****   MX_I2C1_Init();
 255              		.loc 1 121 3 view .LVU71
 256 000e FFF7FEFF 		bl	MX_USART2_UART_Init
 257              	.LVL10:
 122:Core/Src/main.c ****   MX_TIM5_Init();
 258              		.loc 1 122 3 view .LVU72
 259 0012 FFF7FEFF 		bl	MX_I2C1_Init
 260              	.LVL11:
 123:Core/Src/main.c ****   MX_TIM12_Init();
 261              		.loc 1 123 3 view .LVU73
 262 0016 FFF7FEFF 		bl	MX_TIM5_Init
 263              	.LVL12:
 124:Core/Src/main.c ****   MX_TIM3_Init();
 264              		.loc 1 124 3 view .LVU74
 265 001a FFF7FEFF 		bl	MX_TIM12_Init
 266              	.LVL13:
 125:Core/Src/main.c ****   /* USER CODE BEGIN 2 */
 267              		.loc 1 125 3 view .LVU75
 268 001e FFF7FEFF 		bl	MX_TIM3_Init
 269              	.LVL14:
 128:Core/Src/main.c ****   servoConfig.maxDuty   = 0.125;
 270              		.loc 1 128 3 view .LVU76
 128:Core/Src/main.c ****   servoConfig.maxDuty   = 0.125;
 271              		.loc 1 128 25 is_stmt 0 view .LVU77
 272 0022 444B     		ldr	r3, .L21
 273 0024 444A     		ldr	r2, .L21+4
 274 0026 1A60     		str	r2, [r3]	@ float
 129:Core/Src/main.c ****   servoConfig.minAngle  = -90;
 275              		.loc 1 129 3 is_stmt 1 view .LVU78
 129:Core/Src/main.c ****   servoConfig.minAngle  = -90;
 276              		.loc 1 129 25 is_stmt 0 view .LVU79
 277 0028 4FF07852 		mov	r2, #1040187392
 278 002c 5A60     		str	r2, [r3, #4]	@ float
 130:Core/Src/main.c ****   servoConfig.minAngle  = 90;
ARM GAS  C:\Users\jacki\AppData\Local\Temp\ccVaAQ2T.s 			page 15


 279              		.loc 1 130 3 is_stmt 1 view .LVU80
 130:Core/Src/main.c ****   servoConfig.minAngle  = 90;
 280              		.loc 1 130 25 is_stmt 0 view .LVU81
 281 002e A622     		movs	r2, #166
 282 0030 1A72     		strb	r2, [r3, #8]
 131:Core/Src/main.c **** 
 283              		.loc 1 131 3 is_stmt 1 view .LVU82
 131:Core/Src/main.c **** 
 284              		.loc 1 131 25 is_stmt 0 view .LVU83
 285 0032 5A22     		movs	r2, #90
 286 0034 1A72     		strb	r2, [r3, #8]
 133:Core/Src/main.c ****   servoInstance.channel = TIM_CHANNEL_2;
 287              		.loc 1 133 3 is_stmt 1 view .LVU84
 133:Core/Src/main.c ****   servoInstance.channel = TIM_CHANNEL_2;
 288              		.loc 1 133 25 is_stmt 0 view .LVU85
 289 0036 4148     		ldr	r0, .L21+8
 290 0038 414A     		ldr	r2, .L21+12
 291 003a 0260     		str	r2, [r0]
 134:Core/Src/main.c ****   servoInstance.config  = &servoConfig;
 292              		.loc 1 134 3 is_stmt 1 view .LVU86
 134:Core/Src/main.c ****   servoInstance.config  = &servoConfig;
 293              		.loc 1 134 25 is_stmt 0 view .LVU87
 294 003c 0422     		movs	r2, #4
 295 003e 0271     		strb	r2, [r0, #4]
 135:Core/Src/main.c **** 
 296              		.loc 1 135 3 is_stmt 1 view .LVU88
 135:Core/Src/main.c **** 
 297              		.loc 1 135 25 is_stmt 0 view .LVU89
 298 0040 8360     		str	r3, [r0, #8]
 137:Core/Src/main.c ****   if(servoError != SERVO_OK){
 299              		.loc 1 137 3 is_stmt 1 view .LVU90
 137:Core/Src/main.c ****   if(servoError != SERVO_OK){
 300              		.loc 1 137 16 is_stmt 0 view .LVU91
 301 0042 FFF7FEFF 		bl	Servo_Init
 302              	.LVL15:
 137:Core/Src/main.c ****   if(servoError != SERVO_OK){
 303              		.loc 1 137 14 view .LVU92
 304 0046 3F4B     		ldr	r3, .L21+16
 305 0048 1870     		strb	r0, [r3]
 138:Core/Src/main.c ****     HAL_GPIO_WritePin(LD2_GPIO_Port, LD2_Pin, GPIO_PIN_SET);
 306              		.loc 1 138 3 is_stmt 1 view .LVU93
 138:Core/Src/main.c ****     HAL_GPIO_WritePin(LD2_GPIO_Port, LD2_Pin, GPIO_PIN_SET);
 307              		.loc 1 138 5 is_stmt 0 view .LVU94
 308 004a 28B1     		cbz	r0, .L14
 139:Core/Src/main.c ****     while(1);
 309              		.loc 1 139 5 is_stmt 1 view .LVU95
 310 004c 0122     		movs	r2, #1
 311 004e 2021     		movs	r1, #32
 312 0050 3D48     		ldr	r0, .L21+20
 313 0052 FFF7FEFF 		bl	HAL_GPIO_WritePin
 314              	.LVL16:
 315              	.L15:
 140:Core/Src/main.c ****   }
 316              		.loc 1 140 5 discriminator 1 view .LVU96
 140:Core/Src/main.c ****   }
 317              		.loc 1 140 10 discriminator 1 view .LVU97
 318 0056 FEE7     		b	.L15
ARM GAS  C:\Users\jacki\AppData\Local\Temp\ccVaAQ2T.s 			page 16


 319              	.L14:
 143:Core/Src/main.c ****   actConfig.Max_Pulse          = 2100;
 320              		.loc 1 143 3 view .LVU98
 143:Core/Src/main.c ****   actConfig.Max_Pulse          = 2100;
 321              		.loc 1 143 32 is_stmt 0 view .LVU99
 322 0058 3C4B     		ldr	r3, .L21+24
 323 005a 4FF46172 		mov	r2, #900
 324 005e 1A80     		strh	r2, [r3]	@ movhi
 144:Core/Src/main.c ****   actConfig.Min_Length         = 0;
 325              		.loc 1 144 3 is_stmt 1 view .LVU100
 144:Core/Src/main.c ****   actConfig.Min_Length         = 0;
 326              		.loc 1 144 32 is_stmt 0 view .LVU101
 327 0060 40F63402 		movw	r2, #2100
 328 0064 5A80     		strh	r2, [r3, #2]	@ movhi
 145:Core/Src/main.c ****   actConfig.Max_Length         = 27;
 329              		.loc 1 145 3 is_stmt 1 view .LVU102
 145:Core/Src/main.c ****   actConfig.Max_Length         = 27;
 330              		.loc 1 145 32 is_stmt 0 view .LVU103
 331 0066 0022     		movs	r2, #0
 332 0068 1A71     		strb	r2, [r3, #4]
 146:Core/Src/main.c ****   actConfig.Desired_Max_Length = 0;
 333              		.loc 1 146 3 is_stmt 1 view .LVU104
 146:Core/Src/main.c ****   actConfig.Desired_Max_Length = 0;
 334              		.loc 1 146 32 is_stmt 0 view .LVU105
 335 006a 1B21     		movs	r1, #27
 336 006c 5971     		strb	r1, [r3, #5]
 147:Core/Src/main.c ****   actConfig.Desired_Max_Length = 16;
 337              		.loc 1 147 3 is_stmt 1 view .LVU106
 147:Core/Src/main.c ****   actConfig.Desired_Max_Length = 16;
 338              		.loc 1 147 32 is_stmt 0 view .LVU107
 339 006e DA71     		strb	r2, [r3, #7]
 148:Core/Src/main.c **** 
 340              		.loc 1 148 3 is_stmt 1 view .LVU108
 148:Core/Src/main.c **** 
 341              		.loc 1 148 32 is_stmt 0 view .LVU109
 342 0070 1021     		movs	r1, #16
 343 0072 D971     		strb	r1, [r3, #7]
 150:Core/Src/main.c ****   actInstance.Channel   = TIM_CHANNEL_1;
 344              		.loc 1 150 3 is_stmt 1 view .LVU110
 150:Core/Src/main.c ****   actInstance.Channel   = TIM_CHANNEL_1;
 345              		.loc 1 150 25 is_stmt 0 view .LVU111
 346 0074 3648     		ldr	r0, .L21+28
 347 0076 3249     		ldr	r1, .L21+12
 348 0078 0160     		str	r1, [r0]
 151:Core/Src/main.c ****   actInstance.config    = &actConfig;
 349              		.loc 1 151 3 is_stmt 1 view .LVU112
 151:Core/Src/main.c ****   actInstance.config    = &actConfig;
 350              		.loc 1 151 25 is_stmt 0 view .LVU113
 351 007a 0271     		strb	r2, [r0, #4]
 152:Core/Src/main.c **** 
 352              		.loc 1 152 3 is_stmt 1 view .LVU114
 152:Core/Src/main.c **** 
 353              		.loc 1 152 25 is_stmt 0 view .LVU115
 354 007c 8360     		str	r3, [r0, #8]
 154:Core/Src/main.c ****   if(actError != ACTUATOR_OK){
 355              		.loc 1 154 3 is_stmt 1 view .LVU116
 154:Core/Src/main.c ****   if(actError != ACTUATOR_OK){
ARM GAS  C:\Users\jacki\AppData\Local\Temp\ccVaAQ2T.s 			page 17


 356              		.loc 1 154 14 is_stmt 0 view .LVU117
 357 007e FFF7FEFF 		bl	Actuator_Init
 358              	.LVL17:
 154:Core/Src/main.c ****   if(actError != ACTUATOR_OK){
 359              		.loc 1 154 12 view .LVU118
 360 0082 344B     		ldr	r3, .L21+32
 361 0084 1870     		strb	r0, [r3]
 155:Core/Src/main.c ****     HAL_GPIO_WritePin(LD2_GPIO_Port, LD2_Pin, GPIO_PIN_SET);
 362              		.loc 1 155 3 is_stmt 1 view .LVU119
 155:Core/Src/main.c ****     HAL_GPIO_WritePin(LD2_GPIO_Port, LD2_Pin, GPIO_PIN_SET);
 363              		.loc 1 155 5 is_stmt 0 view .LVU120
 364 0086 28B1     		cbz	r0, .L16
 156:Core/Src/main.c ****     while(1);
 365              		.loc 1 156 5 is_stmt 1 view .LVU121
 366 0088 0122     		movs	r2, #1
 367 008a 2021     		movs	r1, #32
 368 008c 2E48     		ldr	r0, .L21+20
 369 008e FFF7FEFF 		bl	HAL_GPIO_WritePin
 370              	.LVL18:
 371              	.L17:
 157:Core/Src/main.c ****   }
 372              		.loc 1 157 5 discriminator 2 view .LVU122
 157:Core/Src/main.c ****   }
 373              		.loc 1 157 10 discriminator 2 view .LVU123
 374 0092 FEE7     		b	.L17
 375              	.L16:
 160:Core/Src/main.c **** 
 376              		.loc 1 160 3 view .LVU124
 377 0094 2E4C     		ldr	r4, .L21+28
 378 0096 2046     		mov	r0, r4
 379 0098 FFF7FEFF 		bl	Actuator_Init
 380              	.LVL19:
 162:Core/Src/main.c **** 
 381              		.loc 1 162 3 view .LVU125
 382 009c 0821     		movs	r1, #8
 383 009e 2046     		mov	r0, r4
 384 00a0 FFF7FEFF 		bl	Drive_Actuator
 385              	.LVL20:
 164:Core/Src/main.c **** 
 386              		.loc 1 164 3 view .LVU126
 387 00a4 1021     		movs	r1, #16
 388 00a6 2046     		mov	r0, r4
 389 00a8 FFF7FEFF 		bl	Drive_Actuator
 390              	.LVL21:
 166:Core/Src/main.c **** 
 391              		.loc 1 166 3 view .LVU127
 392 00ac 1321     		movs	r1, #19
 393 00ae 2046     		mov	r0, r4
 394 00b0 FFF7FEFF 		bl	Drive_Actuator
 395              	.LVL22:
 168:Core/Src/main.c ****   dcMotorConfig.Max_Speed = 100;
 396              		.loc 1 168 3 view .LVU128
 168:Core/Src/main.c ****   dcMotorConfig.Max_Speed = 100;
 397              		.loc 1 168 27 is_stmt 0 view .LVU129
 398 00b4 284B     		ldr	r3, .L21+36
 399 00b6 0025     		movs	r5, #0
 400 00b8 1D70     		strb	r5, [r3]
ARM GAS  C:\Users\jacki\AppData\Local\Temp\ccVaAQ2T.s 			page 18


 169:Core/Src/main.c **** 
 401              		.loc 1 169 3 is_stmt 1 view .LVU130
 169:Core/Src/main.c **** 
 402              		.loc 1 169 27 is_stmt 0 view .LVU131
 403 00ba 6422     		movs	r2, #100
 404 00bc 5A70     		strb	r2, [r3, #1]
 171:Core/Src/main.c ****   dcMotor.IN1_Channel   = TIM_CHANNEL_1;
 405              		.loc 1 171 3 is_stmt 1 view .LVU132
 171:Core/Src/main.c ****   dcMotor.IN1_Channel   = TIM_CHANNEL_1;
 406              		.loc 1 171 25 is_stmt 0 view .LVU133
 407 00be 274C     		ldr	r4, .L21+40
 408 00c0 274A     		ldr	r2, .L21+44
 409 00c2 2260     		str	r2, [r4]
 172:Core/Src/main.c ****   dcMotor.IN2_Channel   = TIM_CHANNEL_2;
 410              		.loc 1 172 3 is_stmt 1 view .LVU134
 172:Core/Src/main.c ****   dcMotor.IN2_Channel   = TIM_CHANNEL_2;
 411              		.loc 1 172 25 is_stmt 0 view .LVU135
 412 00c4 2571     		strb	r5, [r4, #4]
 173:Core/Src/main.c ****   dcMotor.config        = &dcMotorConfig;
 413              		.loc 1 173 3 is_stmt 1 view .LVU136
 173:Core/Src/main.c ****   dcMotor.config        = &dcMotorConfig;
 414              		.loc 1 173 25 is_stmt 0 view .LVU137
 415 00c6 0422     		movs	r2, #4
 416 00c8 6271     		strb	r2, [r4, #5]
 174:Core/Src/main.c ****   
 417              		.loc 1 174 3 is_stmt 1 view .LVU138
 174:Core/Src/main.c ****   
 418              		.loc 1 174 25 is_stmt 0 view .LVU139
 419 00ca E360     		str	r3, [r4, #12]
 176:Core/Src/main.c **** 
 420              		.loc 1 176 3 is_stmt 1 view .LVU140
 421 00cc 2046     		mov	r0, r4
 422 00ce FFF7FEFF 		bl	DCMotor_Init
 423              	.LVL23:
 178:Core/Src/main.c ****   encConfig.Default_Counter   = defaultValue;
 424              		.loc 1 178 3 view .LVU141
 178:Core/Src/main.c ****   encConfig.Default_Counter   = defaultValue;
 425              		.loc 1 178 31 is_stmt 0 view .LVU142
 426 00d2 244B     		ldr	r3, .L21+48
 427 00d4 1D81     		strh	r5, [r3, #8]	@ movhi
 179:Core/Src/main.c ****   encConfig.Degree_Per_Pulse  = (float)360 / defaultValue;
 428              		.loc 1 179 3 is_stmt 1 view .LVU143
 179:Core/Src/main.c ****   encConfig.Degree_Per_Pulse  = (float)360 / defaultValue;
 429              		.loc 1 179 31 is_stmt 0 view .LVU144
 430 00d6 48F6C522 		movw	r2, #35525
 431 00da 1A60     		str	r2, [r3]
 180:Core/Src/main.c ****   encConfig.Min_Angle         = -360;
 432              		.loc 1 180 3 is_stmt 1 view .LVU145
 180:Core/Src/main.c ****   encConfig.Min_Angle         = -360;
 433              		.loc 1 180 31 is_stmt 0 view .LVU146
 434 00dc 224A     		ldr	r2, .L21+52
 435 00de 5A60     		str	r2, [r3, #4]	@ float
 181:Core/Src/main.c ****   encConfig.Max_Angle         = 360;
 436              		.loc 1 181 3 is_stmt 1 view .LVU147
 181:Core/Src/main.c ****   encConfig.Max_Angle         = 360;
 437              		.loc 1 181 31 is_stmt 0 view .LVU148
 438 00e0 4FF69862 		movw	r2, #65176
ARM GAS  C:\Users\jacki\AppData\Local\Temp\ccVaAQ2T.s 			page 19


 439 00e4 5A81     		strh	r2, [r3, #10]	@ movhi
 182:Core/Src/main.c **** 
 440              		.loc 1 182 3 is_stmt 1 view .LVU149
 182:Core/Src/main.c **** 
 441              		.loc 1 182 31 is_stmt 0 view .LVU150
 442 00e6 4FF4B472 		mov	r2, #360
 443 00ea 9A81     		strh	r2, [r3, #12]	@ movhi
 184:Core/Src/main.c ****   encInstance.encConfig       = &encConfig;
 444              		.loc 1 184 3 is_stmt 1 view .LVU151
 184:Core/Src/main.c ****   encInstance.encConfig       = &encConfig;
 445              		.loc 1 184 31 is_stmt 0 view .LVU152
 446 00ec 1F48     		ldr	r0, .L21+56
 447 00ee 204A     		ldr	r2, .L21+60
 448 00f0 0260     		str	r2, [r0]
 185:Core/Src/main.c ****   encInstance.motorInstance   = &dcMotor;
 449              		.loc 1 185 3 is_stmt 1 view .LVU153
 185:Core/Src/main.c ****   encInstance.motorInstance   = &dcMotor;
 450              		.loc 1 185 31 is_stmt 0 view .LVU154
 451 00f2 4360     		str	r3, [r0, #4]
 186:Core/Src/main.c **** 
 452              		.loc 1 186 3 is_stmt 1 view .LVU155
 186:Core/Src/main.c **** 
 453              		.loc 1 186 31 is_stmt 0 view .LVU156
 454 00f4 8460     		str	r4, [r0, #8]
 188:Core/Src/main.c **** 
 455              		.loc 1 188 3 is_stmt 1 view .LVU157
 456 00f6 FFF7FEFF 		bl	DCMotor_Encoder_Init
 457              	.LVL24:
 458              	.L19:
 207:Core/Src/main.c ****   {
 459              		.loc 1 207 3 view .LVU158
 460              	.LBB8:
 225:Core/Src/main.c ****   while(!inUART);
 461              		.loc 1 225 3 view .LVU159
 462 00fa 0422     		movs	r2, #4
 463 00fc 1D49     		ldr	r1, .L21+64
 464 00fe 1E48     		ldr	r0, .L21+68
 465 0100 FFF7FEFF 		bl	HAL_UART_Receive_IT
 466              	.LVL25:
 226:Core/Src/main.c ****   inUART = 0;
 467              		.loc 1 226 3 view .LVU160
 468              	.L18:
 226:Core/Src/main.c ****   inUART = 0;
 469              		.loc 1 226 9 discriminator 1 view .LVU161
 470 0104 1D4B     		ldr	r3, .L21+72
 471 0106 1B78     		ldrb	r3, [r3]	@ zero_extendqisi2
 472 0108 002B     		cmp	r3, #0
 473 010a FBD0     		beq	.L18
 227:Core/Src/main.c ****   userBalls = atoi(uartBuf);
 474              		.loc 1 227 3 view .LVU162
 227:Core/Src/main.c ****   userBalls = atoi(uartBuf);
 475              		.loc 1 227 10 is_stmt 0 view .LVU163
 476 010c 1B4B     		ldr	r3, .L21+72
 477 010e 0022     		movs	r2, #0
 478 0110 1A70     		strb	r2, [r3]
 228:Core/Src/main.c ****   Drive_DCMotor_Angle(&encInstance, userBalls);
 479              		.loc 1 228 3 is_stmt 1 view .LVU164
ARM GAS  C:\Users\jacki\AppData\Local\Temp\ccVaAQ2T.s 			page 20


 228:Core/Src/main.c ****   Drive_DCMotor_Angle(&encInstance, userBalls);
 480              		.loc 1 228 15 is_stmt 0 view .LVU165
 481 0112 1848     		ldr	r0, .L21+64
 482 0114 FFF7FEFF 		bl	atoi
 483              	.LVL26:
 228:Core/Src/main.c ****   Drive_DCMotor_Angle(&encInstance, userBalls);
 484              		.loc 1 228 13 view .LVU166
 485 0118 01B2     		sxth	r1, r0
 486 011a 194B     		ldr	r3, .L21+76
 487 011c 1980     		strh	r1, [r3]	@ movhi
 229:Core/Src/main.c ****   HAL_UART_Transmit(&huart2, &HANDSHAKE, 1, 100);
 488              		.loc 1 229 3 is_stmt 1 view .LVU167
 489 011e 1348     		ldr	r0, .L21+56
 490 0120 FFF7FEFF 		bl	Drive_DCMotor_Angle
 491              	.LVL27:
 230:Core/Src/main.c **** 
 492              		.loc 1 230 3 view .LVU168
 493 0124 6423     		movs	r3, #100
 494 0126 0122     		movs	r2, #1
 495 0128 1649     		ldr	r1, .L21+80
 496 012a 1348     		ldr	r0, .L21+68
 497 012c FFF7FEFF 		bl	HAL_UART_Transmit
 498              	.LVL28:
 499              	.LBE8:
 207:Core/Src/main.c ****   {
 500              		.loc 1 207 9 view .LVU169
 208:Core/Src/main.c ****     // encoderCnt = __HAL_TIM_GET_COUNTER(&htim5);
 501              		.loc 1 208 3 is_stmt 0 view .LVU170
 502 0130 E3E7     		b	.L19
 503              	.L22:
 504 0132 00BF     		.align	2
 505              	.L21:
 506 0134 00000000 		.word	.LANCHOR0
 507 0138 CDCCCC3C 		.word	1020054733
 508 013c 00000000 		.word	.LANCHOR1
 509 0140 00000000 		.word	htim3
 510 0144 00000000 		.word	.LANCHOR2
 511 0148 00000240 		.word	1073872896
 512 014c 00000000 		.word	.LANCHOR3
 513 0150 00000000 		.word	.LANCHOR4
 514 0154 00000000 		.word	.LANCHOR5
 515 0158 00000000 		.word	.LANCHOR6
 516 015c 00000000 		.word	.LANCHOR7
 517 0160 00000000 		.word	htim12
 518 0164 00000000 		.word	.LANCHOR8
 519 0168 DB07263C 		.word	1009125339
 520 016c 00000000 		.word	.LANCHOR9
 521 0170 00000000 		.word	htim5
 522 0174 00000000 		.word	.LANCHOR10
 523 0178 00000000 		.word	huart2
 524 017c 00000000 		.word	.LANCHOR11
 525 0180 00000000 		.word	.LANCHOR12
 526 0184 00000000 		.word	.LANCHOR13
 527              		.cfi_endproc
 528              	.LFE130:
 530              		.global	userBalls
 531              		.global	HANDSHAKE
ARM GAS  C:\Users\jacki\AppData\Local\Temp\ccVaAQ2T.s 			page 21


 532              		.global	inUART
 533              		.global	defaultPrint
 534              		.global	uartBuf
 535              		.global	motorDone
 536              		.global	encoderCnt
 537              		.global	dcError
 538              		.global	actError
 539              		.global	servoError
 540              		.global	encInstance
 541              		.global	encConfig
 542              		.global	dcMotor
 543              		.global	dcMotorConfig
 544              		.global	actInstance
 545              		.global	actConfig
 546              		.global	servoInstance
 547              		.global	servoConfig
 548              		.section	.bss.actConfig,"aw",%nobits
 549              		.align	2
 550              		.set	.LANCHOR3,. + 0
 553              	actConfig:
 554 0000 00000000 		.space	8
 554      00000000 
 555              		.section	.bss.actError,"aw",%nobits
 556              		.set	.LANCHOR5,. + 0
 559              	actError:
 560 0000 00       		.space	1
 561              		.section	.bss.actInstance,"aw",%nobits
 562              		.align	2
 563              		.set	.LANCHOR4,. + 0
 566              	actInstance:
 567 0000 00000000 		.space	16
 567      00000000 
 567      00000000 
 567      00000000 
 568              		.section	.bss.dcError,"aw",%nobits
 571              	dcError:
 572 0000 00       		.space	1
 573              		.section	.bss.dcMotor,"aw",%nobits
 574              		.align	2
 575              		.set	.LANCHOR7,. + 0
 578              	dcMotor:
 579 0000 00000000 		.space	16
 579      00000000 
 579      00000000 
 579      00000000 
 580              		.section	.bss.dcMotorConfig,"aw",%nobits
 581              		.align	2
 582              		.set	.LANCHOR6,. + 0
 585              	dcMotorConfig:
 586 0000 0000     		.space	2
 587              		.section	.bss.encConfig,"aw",%nobits
 588              		.align	2
 589              		.set	.LANCHOR8,. + 0
 592              	encConfig:
 593 0000 00000000 		.space	16
 593      00000000 
 593      00000000 
ARM GAS  C:\Users\jacki\AppData\Local\Temp\ccVaAQ2T.s 			page 22


 593      00000000 
 594              		.section	.bss.encInstance,"aw",%nobits
 595              		.align	2
 596              		.set	.LANCHOR9,. + 0
 599              	encInstance:
 600 0000 00000000 		.space	12
 600      00000000 
 600      00000000 
 601              		.section	.bss.encoderCnt,"aw",%nobits
 602              		.align	2
 605              	encoderCnt:
 606 0000 00000000 		.space	4
 607              		.section	.bss.inUART,"aw",%nobits
 608              		.set	.LANCHOR11,. + 0
 611              	inUART:
 612 0000 00       		.space	1
 613              		.section	.bss.motorDone,"aw",%nobits
 616              	motorDone:
 617 0000 00       		.space	1
 618              		.section	.bss.servoConfig,"aw",%nobits
 619              		.align	2
 620              		.set	.LANCHOR0,. + 0
 623              	servoConfig:
 624 0000 00000000 		.space	12
 624      00000000 
 624      00000000 
 625              		.section	.bss.servoError,"aw",%nobits
 626              		.set	.LANCHOR2,. + 0
 629              	servoError:
 630 0000 00       		.space	1
 631              		.section	.bss.servoInstance,"aw",%nobits
 632              		.align	2
 633              		.set	.LANCHOR1,. + 0
 636              	servoInstance:
 637 0000 00000000 		.space	20
 637      00000000 
 637      00000000 
 637      00000000 
 637      00000000 
 638              		.section	.bss.uartBuf,"aw",%nobits
 639              		.align	2
 640              		.set	.LANCHOR10,. + 0
 643              	uartBuf:
 644 0000 00000000 		.space	4
 645              		.section	.bss.userBalls,"aw",%nobits
 646              		.align	1
 647              		.set	.LANCHOR12,. + 0
 650              	userBalls:
 651 0000 0000     		.space	2
 652              		.section	.data.defaultPrint,"aw"
 653              		.align	2
 656              	defaultPrint:
 657 0000 506C6561 		.ascii	"Please Enter Desired Angle: \012\000"
 657      73652045 
 657      6E746572 
 657      20446573 
 657      69726564 
ARM GAS  C:\Users\jacki\AppData\Local\Temp\ccVaAQ2T.s 			page 23


 658              		.section	.rodata.HANDSHAKE,"a"
 659              		.set	.LANCHOR13,. + 0
 662              	HANDSHAKE:
 663 0000 AA       		.byte	-86
 664              		.text
 665              	.Letext0:
 666              		.file 3 "c:\\users\\jacki\\appdata\\roaming\\code\\user\\globalstorage\\bmd.stm32-for-vscode\\@xpa
 667              		.file 4 "c:\\users\\jacki\\appdata\\roaming\\code\\user\\globalstorage\\bmd.stm32-for-vscode\\@xpa
 668              		.file 5 "Drivers/CMSIS/Device/ST/STM32F4xx/Include/stm32f446xx.h"
 669              		.file 6 "Drivers/STM32F4xx_HAL_Driver/Inc/stm32f4xx_hal_def.h"
 670              		.file 7 "Drivers/STM32F4xx_HAL_Driver/Inc/stm32f4xx_hal_rcc_ex.h"
 671              		.file 8 "Drivers/STM32F4xx_HAL_Driver/Inc/stm32f4xx_hal_rcc.h"
 672              		.file 9 "Drivers/STM32F4xx_HAL_Driver/Inc/stm32f4xx_hal_gpio.h"
 673              		.file 10 "Drivers/STM32F4xx_HAL_Driver/Inc/stm32f4xx_hal_dma.h"
 674              		.file 11 "Drivers/STM32F4xx_HAL_Driver/Inc/stm32f4xx_hal_tim.h"
 675              		.file 12 "Drivers/STM32F4xx_HAL_Driver/Inc/stm32f4xx_hal_uart.h"
 676              		.file 13 "Core/Inc/tim.h"
 677              		.file 14 "Core/Inc/usart.h"
 678              		.file 15 "Core/Inc/motor.h"
 679              		.file 16 "Core/Inc/i2c.h"
 680              		.file 17 "Core/Inc/gpio.h"
 681              		.file 18 "Drivers/STM32F4xx_HAL_Driver/Inc/stm32f4xx_hal_pwr_ex.h"
 682              		.file 19 "Drivers/STM32F4xx_HAL_Driver/Inc/stm32f4xx_hal.h"
 683              		.file 20 "<built-in>"
ARM GAS  C:\Users\jacki\AppData\Local\Temp\ccVaAQ2T.s 			page 24

