ARM GAS  C:\Users\jacki\AppData\Local\Temp\cc4hZi9Z.s 			page 1


   1              		.cpu cortex-m4
   2              		.arch armv7e-m
   3              		.fpu fpv4-sp-d16
   4              		.eabi_attribute 27, 1
   5              		.eabi_attribute 28, 1
   6              		.eabi_attribute 20, 1
   7              		.eabi_attribute 21, 1
   8              		.eabi_attribute 23, 3
   9              		.eabi_attribute 24, 1
  10              		.eabi_attribute 25, 1
  11              		.eabi_attribute 26, 1
  12              		.eabi_attribute 30, 1
  13              		.eabi_attribute 34, 1
  14              		.eabi_attribute 18, 4
  15              		.file	"motor.c"
  16              		.text
  17              	.Ltext0:
  18              		.cfi_sections	.debug_frame
  19              		.section	.text.Get_Freq,"ax",%progbits
  20              		.align	1
  21              		.syntax unified
  22              		.thumb
  23              		.thumb_func
  25              	Get_Freq:
  26              	.LVL0:
  27              	.LFB130:
  28              		.file 1 "Core/Src/motor.c"
   1:Core/Src/motor.c **** /*
   2:Core/Src/motor.c ****  *  motor.c
   3:Core/Src/motor.c ****  *
   4:Core/Src/motor.c ****  *  V1: Main implementation of DC Motor & Actuator control functions
   5:Core/Src/motor.c ****  *  V2: Main implementation of Servo Motor control function
   6:Core/Src/motor.c ****  * 
   7:Core/Src/motor.c ****  *  Created on: Jan 11, 2023
   8:Core/Src/motor.c ****  *      Author: Jackie Huynh & Michelle Tran
   9:Core/Src/motor.c ****  * 
  10:Core/Src/motor.c ****  */
  11:Core/Src/motor.c **** 
  12:Core/Src/motor.c **** #include "motor.h"
  13:Core/Src/motor.c **** #include <math.h>
  14:Core/Src/motor.c **** 
  15:Core/Src/motor.c **** static char servoFreqError = 0;
  16:Core/Src/motor.c **** static char actFreqError = 0;
  17:Core/Src/motor.c **** 
  18:Core/Src/motor.c **** static uint32_t Get_Freq(uint32_t systemClk, uint32_t timerPrescaler, uint32_t timerPeriod){
  29              		.loc 1 18 92 view -0
  30              		.cfi_startproc
  31              		@ args = 0, pretend = 0, frame = 0
  32              		@ frame_needed = 0, uses_anonymous_args = 0
  33              		@ link register save eliminated.
  19:Core/Src/motor.c ****     return (systemClk / (timerPrescaler+1)) / (timerPeriod+1);
  34              		.loc 1 19 5 view .LVU1
  35              		.loc 1 19 40 is_stmt 0 view .LVU2
  36 0000 0131     		adds	r1, r1, #1
  37              	.LVL1:
  38              		.loc 1 19 23 view .LVU3
  39 0002 B0FBF1F0 		udiv	r0, r0, r1
ARM GAS  C:\Users\jacki\AppData\Local\Temp\cc4hZi9Z.s 			page 2


  40              	.LVL2:
  41              		.loc 1 19 59 view .LVU4
  42 0006 0132     		adds	r2, r2, #1
  43              	.LVL3:
  20:Core/Src/motor.c **** }
  44              		.loc 1 20 1 view .LVU5
  45 0008 B0FBF2F0 		udiv	r0, r0, r2
  46 000c 7047     		bx	lr
  47              		.cfi_endproc
  48              	.LFE130:
  50              		.section	.text.Drive_Servo,"ax",%progbits
  51              		.align	1
  52              		.global	Drive_Servo
  53              		.syntax unified
  54              		.thumb
  55              		.thumb_func
  57              	Drive_Servo:
  58              	.LVL4:
  59              	.LFB133:
  21:Core/Src/motor.c **** 
  22:Core/Src/motor.c **** static inline uint32_t map(int8_t x, int8_t x_min, int8_t x_max, uint32_t out_min, uint32_t out_max
  23:Core/Src/motor.c **** 
  24:Core/Src/motor.c **** 	if(x <= x_min)
  25:Core/Src/motor.c **** 		return x_min;
  26:Core/Src/motor.c **** 
  27:Core/Src/motor.c **** 	if(x >= x_max)
  28:Core/Src/motor.c **** 		return x_max;
  29:Core/Src/motor.c **** 
  30:Core/Src/motor.c **** 	return (x - x_min) * (out_max - out_min) / (x_max - x_min) + out_min;
  31:Core/Src/motor.c **** 
  32:Core/Src/motor.c **** }
  33:Core/Src/motor.c **** 
  34:Core/Src/motor.c **** //Servo Functions
  35:Core/Src/motor.c **** Servo_Error Servo_Init(Servo_Instance_t* servo){
  36:Core/Src/motor.c **** 
  37:Core/Src/motor.c ****     /* Makes sure Servo Struct and Servo Config Struct are initialized */
  38:Core/Src/motor.c ****     if(servo == NULL)   
  39:Core/Src/motor.c ****         return SERVO_INSTANCE_ERROR;
  40:Core/Src/motor.c ****     else if(servo->config == NULL)
  41:Core/Src/motor.c ****         return SERVO_INSTANCE_ERROR;
  42:Core/Src/motor.c **** 
  43:Core/Src/motor.c ****     uint16_t timFreq;
  44:Core/Src/motor.c **** 
  45:Core/Src/motor.c **** 	/* Check if this timer is setup correctly for SERVO Control */
  46:Core/Src/motor.c **** 	timFreq = Get_Freq(HAL_RCC_GetSysClockFreq(), servo->htim->Init.Prescaler, __HAL_TIM_GET_AUTORELOA
  47:Core/Src/motor.c **** 
  48:Core/Src/motor.c **** 	if(timFreq != DESIRED_SERVO_FREQ){
  49:Core/Src/motor.c **** 		servoFreqError = 1;
  50:Core/Src/motor.c **** 		return SERVO_FREQ_ERROR;
  51:Core/Src/motor.c **** 	}
  52:Core/Src/motor.c **** 
  53:Core/Src/motor.c **** 	/* Configure Min and Max count based on duty cycle given */
  54:Core/Src/motor.c **** 	servo->minCnt = servo->config->minDuty * __HAL_TIM_GET_AUTORELOAD(servo->htim);
  55:Core/Src/motor.c **** 	servo->maxCnt = servo->config->maxDuty * __HAL_TIM_GET_AUTORELOAD(servo->htim);
  56:Core/Src/motor.c **** 
  57:Core/Src/motor.c **** 	/* Zero Out SERVO */
  58:Core/Src/motor.c **** 	Drive_Servo(servo, 0);
ARM GAS  C:\Users\jacki\AppData\Local\Temp\cc4hZi9Z.s 			page 3


  59:Core/Src/motor.c **** 
  60:Core/Src/motor.c ****     return SERVO_OK;
  61:Core/Src/motor.c **** }
  62:Core/Src/motor.c **** 
  63:Core/Src/motor.c **** Servo_Error Drive_Servo(const Servo_Instance_t* servo, const int8_t angle){
  60              		.loc 1 63 75 is_stmt 1 view -0
  61              		.cfi_startproc
  62              		@ args = 0, pretend = 0, frame = 0
  63              		@ frame_needed = 0, uses_anonymous_args = 0
  64              		@ link register save eliminated.
  65              		.loc 1 63 75 is_stmt 0 view .LVU7
  66 0000 0346     		mov	r3, r0
  64:Core/Src/motor.c **** 
  65:Core/Src/motor.c ****     /* Servo Protection */
  66:Core/Src/motor.c **** 	if(servoFreqError)
  67              		.loc 1 66 2 is_stmt 1 view .LVU8
  68              		.loc 1 66 5 is_stmt 0 view .LVU9
  69 0002 3C4A     		ldr	r2, .L33
  70 0004 1078     		ldrb	r0, [r2]	@ zero_extendqisi2
  71              	.LVL5:
  72              		.loc 1 66 4 view .LVU10
  73 0006 0028     		cmp	r0, #0
  74 0008 6BD1     		bne	.L19
  67:Core/Src/motor.c **** 		return SERVO_FREQ_ERROR;
  68:Core/Src/motor.c **** 
  69:Core/Src/motor.c **** 	/* Asserting Params */
  70:Core/Src/motor.c **** 	if(servo == NULL)
  75              		.loc 1 70 2 is_stmt 1 view .LVU11
  76              		.loc 1 70 4 is_stmt 0 view .LVU12
  77 000a 002B     		cmp	r3, #0
  78 000c 6BD0     		beq	.L20
  71:Core/Src/motor.c **** 		return SERVO_INSTANCE_ERROR;
  72:Core/Src/motor.c **** 	else if(angle < servo->config->minAngle)
  79              		.loc 1 72 7 is_stmt 1 view .LVU13
  80              		.loc 1 72 23 is_stmt 0 view .LVU14
  81 000e 9A68     		ldr	r2, [r3, #8]
  82              		.loc 1 72 31 view .LVU15
  83 0010 92F908C0 		ldrsb	ip, [r2, #8]
  84              		.loc 1 72 9 view .LVU16
  85 0014 8C45     		cmp	ip, r1
  86 0016 68DC     		bgt	.L21
  73:Core/Src/motor.c **** 		return SERVO_RANGE_ERROR_MIN;
  74:Core/Src/motor.c **** 	else if(angle > servo->config->maxAngle)
  87              		.loc 1 74 7 is_stmt 1 view .LVU17
  88              		.loc 1 74 31 is_stmt 0 view .LVU18
  89 0018 92F90920 		ldrsb	r2, [r2, #9]
  90              		.loc 1 74 9 view .LVU19
  91 001c 8A42     		cmp	r2, r1
  92 001e 66DB     		blt	.L22
  63:Core/Src/motor.c **** 
  93              		.loc 1 63 75 view .LVU20
  94 0020 70B4     		push	{r4, r5, r6}
  95              		.cfi_def_cfa_offset 12
  96              		.cfi_offset 4, -12
  97              		.cfi_offset 5, -8
  98              		.cfi_offset 6, -4
  75:Core/Src/motor.c **** 		return SERVO_RANGE_ERROR_MAX;
ARM GAS  C:\Users\jacki\AppData\Local\Temp\cc4hZi9Z.s 			page 4


  76:Core/Src/motor.c **** 
  77:Core/Src/motor.c **** 	/* Set New Compare Value */
  78:Core/Src/motor.c **** 	__HAL_TIM_SET_COMPARE(servo->htim, servo->channel, map(angle, servo->config->minAngle, servo->conf
  99              		.loc 1 78 2 is_stmt 1 view .LVU21
 100 0022 1C79     		ldrb	r4, [r3, #4]	@ zero_extendqisi2
 101 0024 BCB9     		cbnz	r4, .L4
 102              		.loc 1 78 2 is_stmt 0 discriminator 1 view .LVU22
 103 0026 D868     		ldr	r0, [r3, #12]
 104 0028 1D69     		ldr	r5, [r3, #16]
 105 002a 1B68     		ldr	r3, [r3]
 106              	.LVL6:
 107              		.loc 1 78 2 discriminator 1 view .LVU23
 108 002c 1E68     		ldr	r6, [r3]
 109              	.LVL7:
 110              	.LBB14:
 111              	.LBI14:
  22:Core/Src/motor.c **** 
 112              		.loc 1 22 24 is_stmt 1 discriminator 1 view .LVU24
 113              	.LBB15:
  24:Core/Src/motor.c **** 		return x_min;
 114              		.loc 1 24 2 discriminator 1 view .LVU25
  24:Core/Src/motor.c **** 		return x_min;
 115              		.loc 1 24 4 is_stmt 0 discriminator 1 view .LVU26
 116 002e 8C45     		cmp	ip, r1
 117 0030 0FDA     		bge	.L27
  27:Core/Src/motor.c **** 		return x_max;
 118              		.loc 1 27 2 is_stmt 1 view .LVU27
  27:Core/Src/motor.c **** 		return x_max;
 119              		.loc 1 27 4 is_stmt 0 view .LVU28
 120 0032 8A42     		cmp	r2, r1
 121 0034 09DD     		ble	.L6
  30:Core/Src/motor.c **** 
 122              		.loc 1 30 2 is_stmt 1 view .LVU29
  30:Core/Src/motor.c **** 
 123              		.loc 1 30 12 is_stmt 0 view .LVU30
 124 0036 A1EB0C01 		sub	r1, r1, ip
 125              	.LVL8:
  30:Core/Src/motor.c **** 
 126              		.loc 1 30 32 view .LVU31
 127 003a 2D1A     		subs	r5, r5, r0
 128              	.LVL9:
  30:Core/Src/motor.c **** 
 129              		.loc 1 30 21 view .LVU32
 130 003c 05FB01F1 		mul	r1, r5, r1
  30:Core/Src/motor.c **** 
 131              		.loc 1 30 52 view .LVU33
 132 0040 A2EB0C02 		sub	r2, r2, ip
 133              	.LVL10:
  30:Core/Src/motor.c **** 
 134              		.loc 1 30 43 view .LVU34
 135 0044 B1FBF2F1 		udiv	r1, r1, r2
  30:Core/Src/motor.c **** 
 136              		.loc 1 30 61 view .LVU35
 137 0048 4218     		adds	r2, r0, r1
 138              	.L6:
 139              	.LVL11:
  30:Core/Src/motor.c **** 
ARM GAS  C:\Users\jacki\AppData\Local\Temp\cc4hZi9Z.s 			page 5


 140              		.loc 1 30 61 view .LVU36
 141              	.LBE15:
 142              	.LBE14:
 143              		.loc 1 78 2 view .LVU37
 144 004a 7263     		str	r2, [r6, #52]
  79:Core/Src/motor.c **** 
  80:Core/Src/motor.c ****     return SERVO_OK;
 145              		.loc 1 80 12 view .LVU38
 146 004c 2046     		mov	r0, r4
 147              	.L3:
  81:Core/Src/motor.c **** }
 148              		.loc 1 81 1 view .LVU39
 149 004e 70BC     		pop	{r4, r5, r6}
 150              		.cfi_remember_state
 151              		.cfi_restore 6
 152              		.cfi_restore 5
 153              		.cfi_restore 4
 154              		.cfi_def_cfa_offset 0
 155 0050 7047     		bx	lr
 156              	.LVL12:
 157              	.L27:
 158              		.cfi_restore_state
 159              	.LBB17:
 160              	.LBB16:
  25:Core/Src/motor.c **** 
 161              		.loc 1 25 3 is_stmt 1 view .LVU40
  25:Core/Src/motor.c **** 
 162              		.loc 1 25 10 is_stmt 0 view .LVU41
 163 0052 6246     		mov	r2, ip
 164              	.LVL13:
  25:Core/Src/motor.c **** 
 165              		.loc 1 25 10 view .LVU42
 166 0054 F9E7     		b	.L6
 167              	.LVL14:
 168              	.L4:
  25:Core/Src/motor.c **** 
 169              		.loc 1 25 10 view .LVU43
 170              	.LBE16:
 171              	.LBE17:
  78:Core/Src/motor.c **** 
 172              		.loc 1 78 2 discriminator 2 view .LVU44
 173 0056 042C     		cmp	r4, #4
 174 0058 15D0     		beq	.L28
  78:Core/Src/motor.c **** 
 175              		.loc 1 78 2 discriminator 4 view .LVU45
 176 005a 082C     		cmp	r4, #8
 177 005c 29D0     		beq	.L29
  78:Core/Src/motor.c **** 
 178              		.loc 1 78 2 discriminator 7 view .LVU46
 179 005e DE68     		ldr	r6, [r3, #12]
 180 0060 1C69     		ldr	r4, [r3, #16]
 181 0062 1B68     		ldr	r3, [r3]
 182              	.LVL15:
  78:Core/Src/motor.c **** 
 183              		.loc 1 78 2 discriminator 7 view .LVU47
 184 0064 1D68     		ldr	r5, [r3]
 185              	.LVL16:
ARM GAS  C:\Users\jacki\AppData\Local\Temp\cc4hZi9Z.s 			page 6


 186              	.LBB18:
 187              	.LBI18:
  22:Core/Src/motor.c **** 
 188              		.loc 1 22 24 is_stmt 1 discriminator 7 view .LVU48
 189              	.LBB19:
  24:Core/Src/motor.c **** 		return x_min;
 190              		.loc 1 24 2 discriminator 7 view .LVU49
  24:Core/Src/motor.c **** 		return x_min;
 191              		.loc 1 24 4 is_stmt 0 discriminator 7 view .LVU50
 192 0066 8C45     		cmp	ip, r1
 193 0068 39DA     		bge	.L30
  27:Core/Src/motor.c **** 		return x_max;
 194              		.loc 1 27 2 is_stmt 1 view .LVU51
  27:Core/Src/motor.c **** 		return x_max;
 195              		.loc 1 27 4 is_stmt 0 view .LVU52
 196 006a 8A42     		cmp	r2, r1
 197 006c 09DD     		ble	.L17
  30:Core/Src/motor.c **** 
 198              		.loc 1 30 2 is_stmt 1 view .LVU53
  30:Core/Src/motor.c **** 
 199              		.loc 1 30 12 is_stmt 0 view .LVU54
 200 006e A1EB0C03 		sub	r3, r1, ip
  30:Core/Src/motor.c **** 
 201              		.loc 1 30 32 view .LVU55
 202 0072 A41B     		subs	r4, r4, r6
 203              	.LVL17:
  30:Core/Src/motor.c **** 
 204              		.loc 1 30 21 view .LVU56
 205 0074 04FB03F3 		mul	r3, r4, r3
  30:Core/Src/motor.c **** 
 206              		.loc 1 30 52 view .LVU57
 207 0078 A2EB0C02 		sub	r2, r2, ip
 208              	.LVL18:
  30:Core/Src/motor.c **** 
 209              		.loc 1 30 43 view .LVU58
 210 007c B3FBF2F3 		udiv	r3, r3, r2
  30:Core/Src/motor.c **** 
 211              		.loc 1 30 61 view .LVU59
 212 0080 F218     		adds	r2, r6, r3
 213              	.L17:
 214              	.LVL19:
  30:Core/Src/motor.c **** 
 215              		.loc 1 30 61 view .LVU60
 216              	.LBE19:
 217              	.LBE18:
  78:Core/Src/motor.c **** 
 218              		.loc 1 78 2 view .LVU61
 219 0082 2A64     		str	r2, [r5, #64]
 220 0084 E3E7     		b	.L3
 221              	.LVL20:
 222              	.L28:
  78:Core/Src/motor.c **** 
 223              		.loc 1 78 2 discriminator 3 view .LVU62
 224 0086 DC68     		ldr	r4, [r3, #12]
 225 0088 1D69     		ldr	r5, [r3, #16]
 226 008a 1B68     		ldr	r3, [r3]
 227              	.LVL21:
ARM GAS  C:\Users\jacki\AppData\Local\Temp\cc4hZi9Z.s 			page 7


  78:Core/Src/motor.c **** 
 228              		.loc 1 78 2 discriminator 3 view .LVU63
 229 008c 1E68     		ldr	r6, [r3]
 230              	.LVL22:
 231              	.LBB21:
 232              	.LBI21:
  22:Core/Src/motor.c **** 
 233              		.loc 1 22 24 is_stmt 1 discriminator 3 view .LVU64
 234              	.LBB22:
  24:Core/Src/motor.c **** 		return x_min;
 235              		.loc 1 24 2 discriminator 3 view .LVU65
  24:Core/Src/motor.c **** 		return x_min;
 236              		.loc 1 24 4 is_stmt 0 discriminator 3 view .LVU66
 237 008e 8C45     		cmp	ip, r1
 238 0090 0DDA     		bge	.L31
  27:Core/Src/motor.c **** 		return x_max;
 239              		.loc 1 27 2 is_stmt 1 view .LVU67
  27:Core/Src/motor.c **** 		return x_max;
 240              		.loc 1 27 4 is_stmt 0 view .LVU68
 241 0092 8A42     		cmp	r2, r1
 242 0094 09DD     		ble	.L10
  30:Core/Src/motor.c **** 
 243              		.loc 1 30 2 is_stmt 1 view .LVU69
  30:Core/Src/motor.c **** 
 244              		.loc 1 30 12 is_stmt 0 view .LVU70
 245 0096 A1EB0C03 		sub	r3, r1, ip
  30:Core/Src/motor.c **** 
 246              		.loc 1 30 32 view .LVU71
 247 009a 2D1B     		subs	r5, r5, r4
 248              	.LVL23:
  30:Core/Src/motor.c **** 
 249              		.loc 1 30 21 view .LVU72
 250 009c 05FB03F3 		mul	r3, r5, r3
  30:Core/Src/motor.c **** 
 251              		.loc 1 30 52 view .LVU73
 252 00a0 A2EB0C02 		sub	r2, r2, ip
 253              	.LVL24:
  30:Core/Src/motor.c **** 
 254              		.loc 1 30 43 view .LVU74
 255 00a4 B3FBF2F3 		udiv	r3, r3, r2
  30:Core/Src/motor.c **** 
 256              		.loc 1 30 61 view .LVU75
 257 00a8 E218     		adds	r2, r4, r3
 258              	.L10:
 259              	.LVL25:
  30:Core/Src/motor.c **** 
 260              		.loc 1 30 61 view .LVU76
 261              	.LBE22:
 262              	.LBE21:
  78:Core/Src/motor.c **** 
 263              		.loc 1 78 2 view .LVU77
 264 00aa B263     		str	r2, [r6, #56]
 265 00ac CFE7     		b	.L3
 266              	.LVL26:
 267              	.L31:
 268              	.LBB24:
 269              	.LBB23:
ARM GAS  C:\Users\jacki\AppData\Local\Temp\cc4hZi9Z.s 			page 8


  25:Core/Src/motor.c **** 
 270              		.loc 1 25 3 is_stmt 1 view .LVU78
  25:Core/Src/motor.c **** 
 271              		.loc 1 25 10 is_stmt 0 view .LVU79
 272 00ae 6246     		mov	r2, ip
 273              	.LVL27:
  25:Core/Src/motor.c **** 
 274              		.loc 1 25 10 view .LVU80
 275 00b0 FBE7     		b	.L10
 276              	.LVL28:
 277              	.L29:
  25:Core/Src/motor.c **** 
 278              		.loc 1 25 10 view .LVU81
 279              	.LBE23:
 280              	.LBE24:
  78:Core/Src/motor.c **** 
 281              		.loc 1 78 2 discriminator 6 view .LVU82
 282 00b2 DC68     		ldr	r4, [r3, #12]
 283 00b4 1D69     		ldr	r5, [r3, #16]
 284 00b6 1B68     		ldr	r3, [r3]
 285              	.LVL29:
  78:Core/Src/motor.c **** 
 286              		.loc 1 78 2 discriminator 6 view .LVU83
 287 00b8 1E68     		ldr	r6, [r3]
 288              	.LVL30:
 289              	.LBB25:
 290              	.LBI25:
  22:Core/Src/motor.c **** 
 291              		.loc 1 22 24 is_stmt 1 discriminator 6 view .LVU84
 292              	.LBB26:
  24:Core/Src/motor.c **** 		return x_min;
 293              		.loc 1 24 2 discriminator 6 view .LVU85
  24:Core/Src/motor.c **** 		return x_min;
 294              		.loc 1 24 4 is_stmt 0 discriminator 6 view .LVU86
 295 00ba 8C45     		cmp	ip, r1
 296 00bc 0DDA     		bge	.L32
  27:Core/Src/motor.c **** 		return x_max;
 297              		.loc 1 27 2 is_stmt 1 view .LVU87
  27:Core/Src/motor.c **** 		return x_max;
 298              		.loc 1 27 4 is_stmt 0 view .LVU88
 299 00be 8A42     		cmp	r2, r1
 300 00c0 09DD     		ble	.L14
  30:Core/Src/motor.c **** 
 301              		.loc 1 30 2 is_stmt 1 view .LVU89
  30:Core/Src/motor.c **** 
 302              		.loc 1 30 12 is_stmt 0 view .LVU90
 303 00c2 A1EB0C03 		sub	r3, r1, ip
  30:Core/Src/motor.c **** 
 304              		.loc 1 30 32 view .LVU91
 305 00c6 2D1B     		subs	r5, r5, r4
 306              	.LVL31:
  30:Core/Src/motor.c **** 
 307              		.loc 1 30 21 view .LVU92
 308 00c8 05FB03F3 		mul	r3, r5, r3
  30:Core/Src/motor.c **** 
 309              		.loc 1 30 52 view .LVU93
 310 00cc A2EB0C02 		sub	r2, r2, ip
ARM GAS  C:\Users\jacki\AppData\Local\Temp\cc4hZi9Z.s 			page 9


 311              	.LVL32:
  30:Core/Src/motor.c **** 
 312              		.loc 1 30 43 view .LVU94
 313 00d0 B3FBF2F3 		udiv	r3, r3, r2
  30:Core/Src/motor.c **** 
 314              		.loc 1 30 61 view .LVU95
 315 00d4 E218     		adds	r2, r4, r3
 316              	.L14:
 317              	.LVL33:
  30:Core/Src/motor.c **** 
 318              		.loc 1 30 61 view .LVU96
 319              	.LBE26:
 320              	.LBE25:
  78:Core/Src/motor.c **** 
 321              		.loc 1 78 2 view .LVU97
 322 00d6 F263     		str	r2, [r6, #60]
 323 00d8 B9E7     		b	.L3
 324              	.LVL34:
 325              	.L32:
 326              	.LBB28:
 327              	.LBB27:
  25:Core/Src/motor.c **** 
 328              		.loc 1 25 3 is_stmt 1 view .LVU98
  25:Core/Src/motor.c **** 
 329              		.loc 1 25 10 is_stmt 0 view .LVU99
 330 00da 6246     		mov	r2, ip
 331              	.LVL35:
  25:Core/Src/motor.c **** 
 332              		.loc 1 25 10 view .LVU100
 333 00dc FBE7     		b	.L14
 334              	.LVL36:
 335              	.L30:
  25:Core/Src/motor.c **** 
 336              		.loc 1 25 10 view .LVU101
 337              	.LBE27:
 338              	.LBE28:
 339              	.LBB29:
 340              	.LBB20:
  25:Core/Src/motor.c **** 
 341              		.loc 1 25 3 is_stmt 1 view .LVU102
  25:Core/Src/motor.c **** 
 342              		.loc 1 25 10 is_stmt 0 view .LVU103
 343 00de 6246     		mov	r2, ip
 344              	.LVL37:
  25:Core/Src/motor.c **** 
 345              		.loc 1 25 10 view .LVU104
 346 00e0 CFE7     		b	.L17
 347              	.LVL38:
 348              	.L19:
 349              		.cfi_def_cfa_offset 0
 350              		.cfi_restore 4
 351              		.cfi_restore 5
 352              		.cfi_restore 6
  25:Core/Src/motor.c **** 
 353              		.loc 1 25 10 view .LVU105
 354              	.LBE20:
 355              	.LBE29:
ARM GAS  C:\Users\jacki\AppData\Local\Temp\cc4hZi9Z.s 			page 10


  67:Core/Src/motor.c **** 
 356              		.loc 1 67 10 view .LVU106
 357 00e2 0120     		movs	r0, #1
 358 00e4 7047     		bx	lr
 359              	.L20:
  71:Core/Src/motor.c **** 	else if(angle < servo->config->minAngle)
 360              		.loc 1 71 10 view .LVU107
 361 00e6 0420     		movs	r0, #4
 362 00e8 7047     		bx	lr
 363              	.L21:
  73:Core/Src/motor.c **** 	else if(angle > servo->config->maxAngle)
 364              		.loc 1 73 10 view .LVU108
 365 00ea 0220     		movs	r0, #2
 366 00ec 7047     		bx	lr
 367              	.L22:
  75:Core/Src/motor.c **** 
 368              		.loc 1 75 10 view .LVU109
 369 00ee 0320     		movs	r0, #3
 370              		.loc 1 81 1 view .LVU110
 371 00f0 7047     		bx	lr
 372              	.L34:
 373 00f2 00BF     		.align	2
 374              	.L33:
 375 00f4 00000000 		.word	.LANCHOR0
 376              		.cfi_endproc
 377              	.LFE133:
 379              		.section	.text.Servo_Init,"ax",%progbits
 380              		.align	1
 381              		.global	Servo_Init
 382              		.syntax unified
 383              		.thumb
 384              		.thumb_func
 386              	Servo_Init:
 387              	.LVL39:
 388              	.LFB132:
  35:Core/Src/motor.c **** 
 389              		.loc 1 35 48 is_stmt 1 view -0
 390              		.cfi_startproc
 391              		@ args = 0, pretend = 0, frame = 0
 392              		@ frame_needed = 0, uses_anonymous_args = 0
  38:Core/Src/motor.c ****         return SERVO_INSTANCE_ERROR;
 393              		.loc 1 38 5 view .LVU112
  38:Core/Src/motor.c ****         return SERVO_INSTANCE_ERROR;
 394              		.loc 1 38 7 is_stmt 0 view .LVU113
 395 0000 90B3     		cbz	r0, .L38
  35:Core/Src/motor.c **** 
 396              		.loc 1 35 48 view .LVU114
 397 0002 70B5     		push	{r4, r5, r6, lr}
 398              		.cfi_def_cfa_offset 16
 399              		.cfi_offset 4, -16
 400              		.cfi_offset 5, -12
 401              		.cfi_offset 6, -8
 402              		.cfi_offset 14, -4
 403 0004 0446     		mov	r4, r0
  40:Core/Src/motor.c ****         return SERVO_INSTANCE_ERROR;
 404              		.loc 1 40 10 is_stmt 1 view .LVU115
  40:Core/Src/motor.c ****         return SERVO_INSTANCE_ERROR;
ARM GAS  C:\Users\jacki\AppData\Local\Temp\cc4hZi9Z.s 			page 11


 405              		.loc 1 40 18 is_stmt 0 view .LVU116
 406 0006 8368     		ldr	r3, [r0, #8]
  40:Core/Src/motor.c ****         return SERVO_INSTANCE_ERROR;
 407              		.loc 1 40 12 view .LVU117
 408 0008 83B3     		cbz	r3, .L39
  43:Core/Src/motor.c **** 
 409              		.loc 1 43 5 is_stmt 1 view .LVU118
  46:Core/Src/motor.c **** 
 410              		.loc 1 46 2 view .LVU119
  46:Core/Src/motor.c **** 
 411              		.loc 1 46 12 is_stmt 0 view .LVU120
 412 000a FFF7FEFF 		bl	HAL_RCC_GetSysClockFreq
 413              	.LVL40:
  46:Core/Src/motor.c **** 
 414              		.loc 1 46 53 view .LVU121
 415 000e 2568     		ldr	r5, [r4]
  46:Core/Src/motor.c **** 
 416              		.loc 1 46 77 view .LVU122
 417 0010 2E68     		ldr	r6, [r5]
 418 0012 F26A     		ldr	r2, [r6, #44]
  46:Core/Src/motor.c **** 
 419              		.loc 1 46 12 view .LVU123
 420 0014 6968     		ldr	r1, [r5, #4]
 421 0016 FFF7FEFF 		bl	Get_Freq
 422              	.LVL41:
  46:Core/Src/motor.c **** 
 423              		.loc 1 46 10 view .LVU124
 424 001a 80B2     		uxth	r0, r0
 425              	.LVL42:
  48:Core/Src/motor.c **** 		servoFreqError = 1;
 426              		.loc 1 48 2 is_stmt 1 view .LVU125
  48:Core/Src/motor.c **** 		servoFreqError = 1;
 427              		.loc 1 48 4 is_stmt 0 view .LVU126
 428 001c 3228     		cmp	r0, #50
 429 001e 03D0     		beq	.L37
  49:Core/Src/motor.c **** 		return SERVO_FREQ_ERROR;
 430              		.loc 1 49 3 is_stmt 1 view .LVU127
  49:Core/Src/motor.c **** 		return SERVO_FREQ_ERROR;
 431              		.loc 1 49 18 is_stmt 0 view .LVU128
 432 0020 0120     		movs	r0, #1
 433              	.LVL43:
  49:Core/Src/motor.c **** 		return SERVO_FREQ_ERROR;
 434              		.loc 1 49 18 view .LVU129
 435 0022 134B     		ldr	r3, .L44
 436 0024 1870     		strb	r0, [r3]
  50:Core/Src/motor.c **** 	}
 437              		.loc 1 50 3 is_stmt 1 view .LVU130
 438              	.L36:
  61:Core/Src/motor.c **** 
 439              		.loc 1 61 1 is_stmt 0 view .LVU131
 440 0026 70BD     		pop	{r4, r5, r6, pc}
 441              	.LVL44:
 442              	.L37:
  54:Core/Src/motor.c **** 	servo->maxCnt = servo->config->maxDuty * __HAL_TIM_GET_AUTORELOAD(servo->htim);
 443              		.loc 1 54 2 is_stmt 1 view .LVU132
  54:Core/Src/motor.c **** 	servo->maxCnt = servo->config->maxDuty * __HAL_TIM_GET_AUTORELOAD(servo->htim);
 444              		.loc 1 54 23 is_stmt 0 view .LVU133
ARM GAS  C:\Users\jacki\AppData\Local\Temp\cc4hZi9Z.s 			page 12


 445 0028 A368     		ldr	r3, [r4, #8]
  54:Core/Src/motor.c **** 	servo->maxCnt = servo->config->maxDuty * __HAL_TIM_GET_AUTORELOAD(servo->htim);
 446              		.loc 1 54 31 view .LVU134
 447 002a 93ED007A 		vldr.32	s14, [r3]
  54:Core/Src/motor.c **** 	servo->maxCnt = servo->config->maxDuty * __HAL_TIM_GET_AUTORELOAD(servo->htim);
 448              		.loc 1 54 43 view .LVU135
 449 002e D6ED0B7A 		vldr.32	s15, [r6, #44]	@ int
  54:Core/Src/motor.c **** 	servo->maxCnt = servo->config->maxDuty * __HAL_TIM_GET_AUTORELOAD(servo->htim);
 450              		.loc 1 54 41 view .LVU136
 451 0032 F8EE677A 		vcvt.f32.u32	s15, s15
 452 0036 67EE877A 		vmul.f32	s15, s15, s14
  54:Core/Src/motor.c **** 	servo->maxCnt = servo->config->maxDuty * __HAL_TIM_GET_AUTORELOAD(servo->htim);
 453              		.loc 1 54 16 view .LVU137
 454 003a FCEEE77A 		vcvt.u32.f32	s15, s15
 455 003e C4ED037A 		vstr.32	s15, [r4, #12]	@ int
  55:Core/Src/motor.c **** 
 456              		.loc 1 55 2 is_stmt 1 view .LVU138
  55:Core/Src/motor.c **** 
 457              		.loc 1 55 31 is_stmt 0 view .LVU139
 458 0042 93ED017A 		vldr.32	s14, [r3, #4]
  55:Core/Src/motor.c **** 
 459              		.loc 1 55 43 view .LVU140
 460 0046 2B68     		ldr	r3, [r5]
 461 0048 D3ED0B7A 		vldr.32	s15, [r3, #44]	@ int
  55:Core/Src/motor.c **** 
 462              		.loc 1 55 41 view .LVU141
 463 004c F8EE677A 		vcvt.f32.u32	s15, s15
 464 0050 67EE877A 		vmul.f32	s15, s15, s14
  55:Core/Src/motor.c **** 
 465              		.loc 1 55 16 view .LVU142
 466 0054 FCEEE77A 		vcvt.u32.f32	s15, s15
 467 0058 C4ED047A 		vstr.32	s15, [r4, #16]	@ int
  58:Core/Src/motor.c **** 
 468              		.loc 1 58 2 is_stmt 1 view .LVU143
 469 005c 0021     		movs	r1, #0
 470 005e 2046     		mov	r0, r4
 471              	.LVL45:
  58:Core/Src/motor.c **** 
 472              		.loc 1 58 2 is_stmt 0 view .LVU144
 473 0060 FFF7FEFF 		bl	Drive_Servo
 474              	.LVL46:
  60:Core/Src/motor.c **** }
 475              		.loc 1 60 5 is_stmt 1 view .LVU145
  60:Core/Src/motor.c **** }
 476              		.loc 1 60 12 is_stmt 0 view .LVU146
 477 0064 0020     		movs	r0, #0
 478 0066 DEE7     		b	.L36
 479              	.LVL47:
 480              	.L38:
 481              		.cfi_def_cfa_offset 0
 482              		.cfi_restore 4
 483              		.cfi_restore 5
 484              		.cfi_restore 6
 485              		.cfi_restore 14
  39:Core/Src/motor.c ****     else if(servo->config == NULL)
 486              		.loc 1 39 16 view .LVU147
 487 0068 0420     		movs	r0, #4
ARM GAS  C:\Users\jacki\AppData\Local\Temp\cc4hZi9Z.s 			page 13


 488              	.LVL48:
  61:Core/Src/motor.c **** 
 489              		.loc 1 61 1 view .LVU148
 490 006a 7047     		bx	lr
 491              	.LVL49:
 492              	.L39:
 493              		.cfi_def_cfa_offset 16
 494              		.cfi_offset 4, -16
 495              		.cfi_offset 5, -12
 496              		.cfi_offset 6, -8
 497              		.cfi_offset 14, -4
  41:Core/Src/motor.c **** 
 498              		.loc 1 41 16 view .LVU149
 499 006c 0420     		movs	r0, #4
 500              	.LVL50:
  41:Core/Src/motor.c **** 
 501              		.loc 1 41 16 view .LVU150
 502 006e DAE7     		b	.L36
 503              	.L45:
 504              		.align	2
 505              	.L44:
 506 0070 00000000 		.word	.LANCHOR0
 507              		.cfi_endproc
 508              	.LFE132:
 510              		.global	__aeabi_i2d
 511              		.global	__aeabi_ddiv
 512              		.global	__aeabi_d2f
 513              		.section	.text.DCMotor_Init,"ax",%progbits
 514              		.align	1
 515              		.global	DCMotor_Init
 516              		.syntax unified
 517              		.thumb
 518              		.thumb_func
 520              	DCMotor_Init:
 521              	.LVL51:
 522              	.LFB134:
  82:Core/Src/motor.c **** 
  83:Core/Src/motor.c **** //DC Motor Functions
  84:Core/Src/motor.c **** DCMotor_Error DCMotor_Init(DCMotor_Instance_t* dcMotor){
 523              		.loc 1 84 56 is_stmt 1 view -0
 524              		.cfi_startproc
 525              		@ args = 0, pretend = 0, frame = 0
 526              		@ frame_needed = 0, uses_anonymous_args = 0
  85:Core/Src/motor.c **** 
  86:Core/Src/motor.c ****     if(dcMotor == NULL)
 527              		.loc 1 86 5 view .LVU152
 528              		.loc 1 86 7 is_stmt 0 view .LVU153
 529 0000 0028     		cmp	r0, #0
 530 0002 37D0     		beq	.L48
  84:Core/Src/motor.c **** 
 531              		.loc 1 84 56 view .LVU154
 532 0004 F8B5     		push	{r3, r4, r5, r6, r7, lr}
 533              		.cfi_def_cfa_offset 24
 534              		.cfi_offset 3, -24
 535              		.cfi_offset 4, -20
 536              		.cfi_offset 5, -16
 537              		.cfi_offset 6, -12
ARM GAS  C:\Users\jacki\AppData\Local\Temp\cc4hZi9Z.s 			page 14


 538              		.cfi_offset 7, -8
 539              		.cfi_offset 14, -4
 540 0006 0546     		mov	r5, r0
  87:Core/Src/motor.c ****         return DC_MOTOR_INSTANCE_ERR;
  88:Core/Src/motor.c ****     else if(dcMotor->config == NULL)
 541              		.loc 1 88 10 is_stmt 1 view .LVU155
 542              		.loc 1 88 20 is_stmt 0 view .LVU156
 543 0008 C668     		ldr	r6, [r0, #12]
 544              		.loc 1 88 12 view .LVU157
 545 000a 002E     		cmp	r6, #0
 546 000c 34D0     		beq	.L49
  89:Core/Src/motor.c ****         return DC_MOTOR_INSTANCE_ERR;
  90:Core/Src/motor.c **** 
  91:Core/Src/motor.c ****     dcMotor->Min_Cnt = __HAL_TIM_GET_AUTORELOAD(dcMotor->DC_Timer) * (float)(dcMotor->config->Min_S
 547              		.loc 1 91 5 is_stmt 1 view .LVU158
 548              		.loc 1 91 24 is_stmt 0 view .LVU159
 549 000e 0768     		ldr	r7, [r0]
 550 0010 3B68     		ldr	r3, [r7]
 551 0012 DC6A     		ldr	r4, [r3, #44]
 552              		.loc 1 91 105 view .LVU160
 553 0014 3078     		ldrb	r0, [r6]	@ zero_extendqisi2
 554              	.LVL52:
 555              		.loc 1 91 105 view .LVU161
 556 0016 FFF7FEFF 		bl	__aeabi_i2d
 557              	.LVL53:
 558 001a 0022     		movs	r2, #0
 559 001c 174B     		ldr	r3, .L54
 560 001e FFF7FEFF 		bl	__aeabi_ddiv
 561              	.LVL54:
 562              		.loc 1 91 70 view .LVU162
 563 0022 FFF7FEFF 		bl	__aeabi_d2f
 564              	.LVL55:
 565 0026 07EE100A 		vmov	s14, r0
 566              		.loc 1 91 68 view .LVU163
 567 002a 07EE904A 		vmov	s15, r4	@ int
 568 002e F8EE677A 		vcvt.f32.u32	s15, s15
 569 0032 67EE877A 		vmul.f32	s15, s15, s14
 570              		.loc 1 91 22 view .LVU164
 571 0036 FCEEE77A 		vcvt.u32.f32	s15, s15
 572 003a 17EE903A 		vmov	r3, s15	@ int
 573 003e EB80     		strh	r3, [r5, #6]	@ movhi
  92:Core/Src/motor.c ****     dcMotor->Max_Cnt = __HAL_TIM_GET_AUTORELOAD(dcMotor->DC_Timer) * (float)(dcMotor->config->Max_S
 574              		.loc 1 92 5 is_stmt 1 view .LVU165
 575              		.loc 1 92 24 is_stmt 0 view .LVU166
 576 0040 3B68     		ldr	r3, [r7]
 577 0042 DC6A     		ldr	r4, [r3, #44]
 578              		.loc 1 92 105 view .LVU167
 579 0044 7078     		ldrb	r0, [r6, #1]	@ zero_extendqisi2
 580 0046 FFF7FEFF 		bl	__aeabi_i2d
 581              	.LVL56:
 582 004a 0022     		movs	r2, #0
 583 004c 0B4B     		ldr	r3, .L54
 584 004e FFF7FEFF 		bl	__aeabi_ddiv
 585              	.LVL57:
 586              		.loc 1 92 70 view .LVU168
 587 0052 FFF7FEFF 		bl	__aeabi_d2f
 588              	.LVL58:
ARM GAS  C:\Users\jacki\AppData\Local\Temp\cc4hZi9Z.s 			page 15


 589 0056 07EE100A 		vmov	s14, r0
 590              		.loc 1 92 68 view .LVU169
 591 005a 07EE904A 		vmov	s15, r4	@ int
 592 005e F8EE677A 		vcvt.f32.u32	s15, s15
 593 0062 67EE877A 		vmul.f32	s15, s15, s14
 594              		.loc 1 92 22 view .LVU170
 595 0066 FCEEE77A 		vcvt.u32.f32	s15, s15
 596 006a 17EE903A 		vmov	r3, s15	@ int
 597 006e 2B81     		strh	r3, [r5, #8]	@ movhi
  93:Core/Src/motor.c **** 
  94:Core/Src/motor.c ****     return DC_MOTOR_OK;
 598              		.loc 1 94 5 is_stmt 1 view .LVU171
 599              		.loc 1 94 12 is_stmt 0 view .LVU172
 600 0070 0020     		movs	r0, #0
 601              	.L47:
  95:Core/Src/motor.c **** }
 602              		.loc 1 95 1 view .LVU173
 603 0072 F8BD     		pop	{r3, r4, r5, r6, r7, pc}
 604              	.LVL59:
 605              	.L48:
 606              		.cfi_def_cfa_offset 0
 607              		.cfi_restore 3
 608              		.cfi_restore 4
 609              		.cfi_restore 5
 610              		.cfi_restore 6
 611              		.cfi_restore 7
 612              		.cfi_restore 14
  87:Core/Src/motor.c ****     else if(dcMotor->config == NULL)
 613              		.loc 1 87 16 view .LVU174
 614 0074 0320     		movs	r0, #3
 615              	.LVL60:
 616              		.loc 1 95 1 view .LVU175
 617 0076 7047     		bx	lr
 618              	.LVL61:
 619              	.L49:
 620              		.cfi_def_cfa_offset 24
 621              		.cfi_offset 3, -24
 622              		.cfi_offset 4, -20
 623              		.cfi_offset 5, -16
 624              		.cfi_offset 6, -12
 625              		.cfi_offset 7, -8
 626              		.cfi_offset 14, -4
  89:Core/Src/motor.c **** 
 627              		.loc 1 89 16 view .LVU176
 628 0078 0320     		movs	r0, #3
 629              	.LVL62:
  89:Core/Src/motor.c **** 
 630              		.loc 1 89 16 view .LVU177
 631 007a FAE7     		b	.L47
 632              	.L55:
 633              		.align	2
 634              	.L54:
 635 007c 00005940 		.word	1079574528
 636              		.cfi_endproc
 637              	.LFE134:
 639              		.section	.text.Drive_DCMotor,"ax",%progbits
 640              		.align	1
ARM GAS  C:\Users\jacki\AppData\Local\Temp\cc4hZi9Z.s 			page 16


 641              		.global	Drive_DCMotor
 642              		.syntax unified
 643              		.thumb
 644              		.thumb_func
 646              	Drive_DCMotor:
 647              	.LVL63:
 648              	.LFB135:
  96:Core/Src/motor.c **** 
  97:Core/Src/motor.c **** DCMotor_Error Drive_DCMotor(const DCMotor_Instance_t* dcMotor, const uint8_t speed, DCMotor_Directi
 649              		.loc 1 97 107 is_stmt 1 view -0
 650              		.cfi_startproc
 651              		@ args = 0, pretend = 0, frame = 0
 652              		@ frame_needed = 0, uses_anonymous_args = 0
  98:Core/Src/motor.c **** 
  99:Core/Src/motor.c ****     /* Assert Param */
 100:Core/Src/motor.c ****     if(dcMotor == NULL)
 653              		.loc 1 100 5 view .LVU179
 654              		.loc 1 100 7 is_stmt 0 view .LVU180
 655 0000 0028     		cmp	r0, #0
 656 0002 00F0AA80 		beq	.L76
 657 0006 8446     		mov	ip, r0
 101:Core/Src/motor.c ****         return DC_MOTOR_INSTANCE_ERR;
 102:Core/Src/motor.c ****     else if(dcMotor->config == NULL)
 658              		.loc 1 102 10 is_stmt 1 view .LVU181
 659              		.loc 1 102 20 is_stmt 0 view .LVU182
 660 0008 C068     		ldr	r0, [r0, #12]
 661              	.LVL64:
 662              		.loc 1 102 12 view .LVU183
 663 000a 0028     		cmp	r0, #0
 664 000c 00F0A780 		beq	.L77
 103:Core/Src/motor.c ****         return DC_MOTOR_INSTANCE_ERR;
 104:Core/Src/motor.c ****     else if(speed < dcMotor->config->Min_Speed)
 665              		.loc 1 104 10 is_stmt 1 view .LVU184
 666              		.loc 1 104 36 is_stmt 0 view .LVU185
 667 0010 0378     		ldrb	r3, [r0]	@ zero_extendqisi2
 668              		.loc 1 104 12 view .LVU186
 669 0012 8B42     		cmp	r3, r1
 670 0014 00F2A580 		bhi	.L78
 105:Core/Src/motor.c ****         return DC_MOTOR_UNDER_RANGE;
 106:Core/Src/motor.c ****     else if(speed > dcMotor->config->Max_Speed)
 671              		.loc 1 106 10 is_stmt 1 view .LVU187
 672              		.loc 1 106 36 is_stmt 0 view .LVU188
 673 0018 4078     		ldrb	r0, [r0, #1]	@ zero_extendqisi2
 674              		.loc 1 106 12 view .LVU189
 675 001a 8842     		cmp	r0, r1
 676 001c C0F0A380 		bcc	.L79
  97:Core/Src/motor.c **** 
 677              		.loc 1 97 107 view .LVU190
 678 0020 10B5     		push	{r4, lr}
 679              		.cfi_def_cfa_offset 8
 680              		.cfi_offset 4, -8
 681              		.cfi_offset 14, -4
 107:Core/Src/motor.c ****         return DC_MOTOR_ABOVE_RANGE;
 108:Core/Src/motor.c **** 
 109:Core/Src/motor.c ****     /* Map speed value to counter value */
 110:Core/Src/motor.c ****     uint16_t mappedValue = map(speed, dcMotor->config->Min_Speed, dcMotor->config->Max_Speed, dcMot
 682              		.loc 1 110 5 is_stmt 1 view .LVU191
ARM GAS  C:\Users\jacki\AppData\Local\Temp\cc4hZi9Z.s 			page 17


 683              		.loc 1 110 28 is_stmt 0 view .LVU192
 684 0022 49B2     		sxtb	r1, r1
 685              		.loc 1 110 28 view .LVU193
 686 0024 5BB2     		sxtb	r3, r3
 687 0026 40B2     		sxtb	r0, r0
 688              		.loc 1 110 102 view .LVU194
 689 0028 BCF80640 		ldrh	r4, [ip, #6]
 690              		.loc 1 110 120 view .LVU195
 691 002c BCF808E0 		ldrh	lr, [ip, #8]
 692              	.LVL65:
 693              	.LBB30:
 694              	.LBI30:
  22:Core/Src/motor.c **** 
 695              		.loc 1 22 24 is_stmt 1 view .LVU196
 696              	.LBB31:
  24:Core/Src/motor.c **** 		return x_min;
 697              		.loc 1 24 2 view .LVU197
  24:Core/Src/motor.c **** 		return x_min;
 698              		.loc 1 24 4 is_stmt 0 view .LVU198
 699 0030 9942     		cmp	r1, r3
 700 0032 0ADD     		ble	.L59
  27:Core/Src/motor.c **** 		return x_max;
 701              		.loc 1 27 2 is_stmt 1 view .LVU199
  27:Core/Src/motor.c **** 		return x_max;
 702              		.loc 1 27 4 is_stmt 0 view .LVU200
 703 0034 8142     		cmp	r1, r0
 704 0036 1BDA     		bge	.L85
  30:Core/Src/motor.c **** 
 705              		.loc 1 30 2 is_stmt 1 view .LVU201
  30:Core/Src/motor.c **** 
 706              		.loc 1 30 12 is_stmt 0 view .LVU202
 707 0038 C91A     		subs	r1, r1, r3
 708              	.LVL66:
  30:Core/Src/motor.c **** 
 709              		.loc 1 30 32 view .LVU203
 710 003a AEEB040E 		sub	lr, lr, r4
 711              	.LVL67:
  30:Core/Src/motor.c **** 
 712              		.loc 1 30 21 view .LVU204
 713 003e 0EFB01F1 		mul	r1, lr, r1
  30:Core/Src/motor.c **** 
 714              		.loc 1 30 52 view .LVU205
 715 0042 C01A     		subs	r0, r0, r3
 716              	.LVL68:
  30:Core/Src/motor.c **** 
 717              		.loc 1 30 43 view .LVU206
 718 0044 B1FBF0F1 		udiv	r1, r1, r0
  30:Core/Src/motor.c **** 
 719              		.loc 1 30 61 view .LVU207
 720 0048 6318     		adds	r3, r4, r1
 721              	.LVL69:
 722              	.L59:
  30:Core/Src/motor.c **** 
 723              		.loc 1 30 61 view .LVU208
 724              	.LBE31:
 725              	.LBE30:
 111:Core/Src/motor.c **** 
ARM GAS  C:\Users\jacki\AppData\Local\Temp\cc4hZi9Z.s 			page 18


 112:Core/Src/motor.c ****     if(dir == CLOCKWISE){
 726              		.loc 1 112 5 is_stmt 1 view .LVU209
 727              		.loc 1 112 7 is_stmt 0 view .LVU210
 728 004a 002A     		cmp	r2, #0
 729 004c 41D1     		bne	.L61
 113:Core/Src/motor.c ****         __HAL_TIM_SET_COMPARE(dcMotor->DC_Timer, dcMotor->IN1_Channel, mappedValue);
 730              		.loc 1 113 9 is_stmt 1 view .LVU211
 731 004e 9CF80410 		ldrb	r1, [ip, #4]	@ zero_extendqisi2
 732 0052 79B9     		cbnz	r1, .L62
 733              		.loc 1 113 9 is_stmt 0 discriminator 1 view .LVU212
 734 0054 DCF80010 		ldr	r1, [ip]
 735 0058 0968     		ldr	r1, [r1]
 736 005a 9BB2     		uxth	r3, r3
 737              		.loc 1 113 9 discriminator 1 view .LVU213
 738 005c 4B63     		str	r3, [r1, #52]
 739              	.LVL70:
 740              	.L63:
 114:Core/Src/motor.c ****         __HAL_TIM_SET_COMPARE(dcMotor->DC_Timer, dcMotor->IN2_Channel, 0);
 741              		.loc 1 114 9 is_stmt 1 view .LVU214
 742 005e 9CF80500 		ldrb	r0, [ip, #5]	@ zero_extendqisi2
 743 0062 E8B9     		cbnz	r0, .L66
 744              		.loc 1 114 9 is_stmt 0 discriminator 1 view .LVU215
 745 0064 DCF80030 		ldr	r3, [ip]
 746 0068 1B68     		ldr	r3, [r3]
 747 006a 0022     		movs	r2, #0
 748              	.LVL71:
 749              		.loc 1 114 9 discriminator 1 view .LVU216
 750 006c 5A63     		str	r2, [r3, #52]
 751 006e 33E0     		b	.L57
 752              	.LVL72:
 753              	.L85:
 754              	.LBB33:
 755              	.LBB32:
  28:Core/Src/motor.c **** 
 756              		.loc 1 28 3 is_stmt 1 view .LVU217
  28:Core/Src/motor.c **** 
 757              		.loc 1 28 10 is_stmt 0 view .LVU218
 758 0070 0346     		mov	r3, r0
 759              	.LVL73:
  28:Core/Src/motor.c **** 
 760              		.loc 1 28 10 view .LVU219
 761 0072 EAE7     		b	.L59
 762              	.LVL74:
 763              	.L62:
  28:Core/Src/motor.c **** 
 764              		.loc 1 28 10 view .LVU220
 765              	.LBE32:
 766              	.LBE33:
 113:Core/Src/motor.c ****         __HAL_TIM_SET_COMPARE(dcMotor->DC_Timer, dcMotor->IN1_Channel, mappedValue);
 767              		.loc 1 113 9 discriminator 2 view .LVU221
 768 0074 0429     		cmp	r1, #4
 769 0076 07D0     		beq	.L86
 113:Core/Src/motor.c ****         __HAL_TIM_SET_COMPARE(dcMotor->DC_Timer, dcMotor->IN1_Channel, mappedValue);
 770              		.loc 1 113 9 discriminator 4 view .LVU222
 771 0078 0829     		cmp	r1, #8
 772 007a 0BD0     		beq	.L87
 113:Core/Src/motor.c ****         __HAL_TIM_SET_COMPARE(dcMotor->DC_Timer, dcMotor->IN1_Channel, mappedValue);
ARM GAS  C:\Users\jacki\AppData\Local\Temp\cc4hZi9Z.s 			page 19


 773              		.loc 1 113 9 discriminator 7 view .LVU223
 774 007c DCF80010 		ldr	r1, [ip]
 775 0080 0968     		ldr	r1, [r1]
 776 0082 9BB2     		uxth	r3, r3
 113:Core/Src/motor.c ****         __HAL_TIM_SET_COMPARE(dcMotor->DC_Timer, dcMotor->IN1_Channel, mappedValue);
 777              		.loc 1 113 9 discriminator 7 view .LVU224
 778 0084 0B64     		str	r3, [r1, #64]
 779 0086 EAE7     		b	.L63
 780              	.L86:
 113:Core/Src/motor.c ****         __HAL_TIM_SET_COMPARE(dcMotor->DC_Timer, dcMotor->IN1_Channel, mappedValue);
 781              		.loc 1 113 9 discriminator 3 view .LVU225
 782 0088 DCF80010 		ldr	r1, [ip]
 783 008c 0968     		ldr	r1, [r1]
 784 008e 9BB2     		uxth	r3, r3
 113:Core/Src/motor.c ****         __HAL_TIM_SET_COMPARE(dcMotor->DC_Timer, dcMotor->IN1_Channel, mappedValue);
 785              		.loc 1 113 9 discriminator 3 view .LVU226
 786 0090 8B63     		str	r3, [r1, #56]
 787 0092 E4E7     		b	.L63
 788              	.L87:
 113:Core/Src/motor.c ****         __HAL_TIM_SET_COMPARE(dcMotor->DC_Timer, dcMotor->IN1_Channel, mappedValue);
 789              		.loc 1 113 9 discriminator 6 view .LVU227
 790 0094 DCF80010 		ldr	r1, [ip]
 791 0098 0968     		ldr	r1, [r1]
 792 009a 9BB2     		uxth	r3, r3
 113:Core/Src/motor.c ****         __HAL_TIM_SET_COMPARE(dcMotor->DC_Timer, dcMotor->IN1_Channel, mappedValue);
 793              		.loc 1 113 9 discriminator 6 view .LVU228
 794 009c CB63     		str	r3, [r1, #60]
 795 009e DEE7     		b	.L63
 796              	.LVL75:
 797              	.L66:
 798              		.loc 1 114 9 discriminator 2 view .LVU229
 799 00a0 0428     		cmp	r0, #4
 800 00a2 08D0     		beq	.L88
 801              		.loc 1 114 9 discriminator 4 view .LVU230
 802 00a4 0828     		cmp	r0, #8
 803 00a6 0DD0     		beq	.L89
 804              		.loc 1 114 9 discriminator 7 view .LVU231
 805 00a8 DCF80030 		ldr	r3, [ip]
 806 00ac 1B68     		ldr	r3, [r3]
 807 00ae 0021     		movs	r1, #0
 808 00b0 1964     		str	r1, [r3, #64]
 115:Core/Src/motor.c ****     }
 116:Core/Src/motor.c ****     else if(dir == COUNTER_CLOCKWISE){
 117:Core/Src/motor.c ****         __HAL_TIM_SET_COMPARE(dcMotor->DC_Timer, dcMotor->IN1_Channel, 0);
 118:Core/Src/motor.c ****         __HAL_TIM_SET_COMPARE(dcMotor->DC_Timer, dcMotor->IN2_Channel, mappedValue);
 119:Core/Src/motor.c ****     }
 120:Core/Src/motor.c **** 
 121:Core/Src/motor.c ****     return DC_MOTOR_OK;
 809              		.loc 1 121 12 discriminator 7 view .LVU232
 810 00b2 1046     		mov	r0, r2
 811 00b4 10E0     		b	.L57
 812              	.L88:
 114:Core/Src/motor.c ****     }
 813              		.loc 1 114 9 discriminator 3 view .LVU233
 814 00b6 DCF80030 		ldr	r3, [ip]
 815 00ba 1B68     		ldr	r3, [r3]
 816 00bc 0021     		movs	r1, #0
ARM GAS  C:\Users\jacki\AppData\Local\Temp\cc4hZi9Z.s 			page 20


 817 00be 9963     		str	r1, [r3, #56]
 818              		.loc 1 121 12 discriminator 3 view .LVU234
 819 00c0 1046     		mov	r0, r2
 820 00c2 09E0     		b	.L57
 821              	.L89:
 114:Core/Src/motor.c ****     }
 822              		.loc 1 114 9 discriminator 6 view .LVU235
 823 00c4 DCF80030 		ldr	r3, [ip]
 824 00c8 1B68     		ldr	r3, [r3]
 825 00ca 0021     		movs	r1, #0
 826 00cc D963     		str	r1, [r3, #60]
 827              		.loc 1 121 12 discriminator 6 view .LVU236
 828 00ce 1046     		mov	r0, r2
 829 00d0 02E0     		b	.L57
 830              	.LVL76:
 831              	.L61:
 116:Core/Src/motor.c ****         __HAL_TIM_SET_COMPARE(dcMotor->DC_Timer, dcMotor->IN1_Channel, 0);
 832              		.loc 1 116 10 is_stmt 1 view .LVU237
 116:Core/Src/motor.c ****         __HAL_TIM_SET_COMPARE(dcMotor->DC_Timer, dcMotor->IN1_Channel, 0);
 833              		.loc 1 116 12 is_stmt 0 view .LVU238
 834 00d2 012A     		cmp	r2, #1
 835 00d4 01D0     		beq	.L90
 836              		.loc 1 121 12 view .LVU239
 837 00d6 0020     		movs	r0, #0
 838              	.LVL77:
 839              	.L57:
 122:Core/Src/motor.c **** }
 840              		.loc 1 122 1 view .LVU240
 841 00d8 10BD     		pop	{r4, pc}
 842              	.LVL78:
 843              	.L90:
 117:Core/Src/motor.c ****         __HAL_TIM_SET_COMPARE(dcMotor->DC_Timer, dcMotor->IN2_Channel, mappedValue);
 844              		.loc 1 117 9 is_stmt 1 view .LVU241
 845 00da 9CF80420 		ldrb	r2, [ip, #4]	@ zero_extendqisi2
 846              	.LVL79:
 117:Core/Src/motor.c ****         __HAL_TIM_SET_COMPARE(dcMotor->DC_Timer, dcMotor->IN2_Channel, mappedValue);
 847              		.loc 1 117 9 is_stmt 0 view .LVU242
 848 00de 6AB9     		cbnz	r2, .L69
 117:Core/Src/motor.c ****         __HAL_TIM_SET_COMPARE(dcMotor->DC_Timer, dcMotor->IN2_Channel, mappedValue);
 849              		.loc 1 117 9 discriminator 1 view .LVU243
 850 00e0 DCF80020 		ldr	r2, [ip]
 851 00e4 1268     		ldr	r2, [r2]
 852 00e6 0021     		movs	r1, #0
 853 00e8 5163     		str	r1, [r2, #52]
 854              	.L70:
 118:Core/Src/motor.c ****     }
 855              		.loc 1 118 9 is_stmt 1 view .LVU244
 856 00ea 9CF80500 		ldrb	r0, [ip, #5]	@ zero_extendqisi2
 857 00ee D8B9     		cbnz	r0, .L73
 118:Core/Src/motor.c ****     }
 858              		.loc 1 118 9 is_stmt 0 discriminator 1 view .LVU245
 859 00f0 DCF80020 		ldr	r2, [ip]
 860 00f4 1268     		ldr	r2, [r2]
 861 00f6 9BB2     		uxth	r3, r3
 118:Core/Src/motor.c ****     }
 862              		.loc 1 118 9 discriminator 1 view .LVU246
 863 00f8 5363     		str	r3, [r2, #52]
ARM GAS  C:\Users\jacki\AppData\Local\Temp\cc4hZi9Z.s 			page 21


 864 00fa EDE7     		b	.L57
 865              	.L69:
 117:Core/Src/motor.c ****         __HAL_TIM_SET_COMPARE(dcMotor->DC_Timer, dcMotor->IN2_Channel, mappedValue);
 866              		.loc 1 117 9 discriminator 2 view .LVU247
 867 00fc 042A     		cmp	r2, #4
 868 00fe 07D0     		beq	.L91
 117:Core/Src/motor.c ****         __HAL_TIM_SET_COMPARE(dcMotor->DC_Timer, dcMotor->IN2_Channel, mappedValue);
 869              		.loc 1 117 9 discriminator 4 view .LVU248
 870 0100 082A     		cmp	r2, #8
 871 0102 0BD0     		beq	.L92
 117:Core/Src/motor.c ****         __HAL_TIM_SET_COMPARE(dcMotor->DC_Timer, dcMotor->IN2_Channel, mappedValue);
 872              		.loc 1 117 9 discriminator 7 view .LVU249
 873 0104 DCF80020 		ldr	r2, [ip]
 874 0108 1268     		ldr	r2, [r2]
 875 010a 0021     		movs	r1, #0
 876 010c 1164     		str	r1, [r2, #64]
 877 010e ECE7     		b	.L70
 878              	.L91:
 117:Core/Src/motor.c ****         __HAL_TIM_SET_COMPARE(dcMotor->DC_Timer, dcMotor->IN2_Channel, mappedValue);
 879              		.loc 1 117 9 discriminator 3 view .LVU250
 880 0110 DCF80020 		ldr	r2, [ip]
 881 0114 1268     		ldr	r2, [r2]
 882 0116 0021     		movs	r1, #0
 883 0118 9163     		str	r1, [r2, #56]
 884 011a E6E7     		b	.L70
 885              	.L92:
 117:Core/Src/motor.c ****         __HAL_TIM_SET_COMPARE(dcMotor->DC_Timer, dcMotor->IN2_Channel, mappedValue);
 886              		.loc 1 117 9 discriminator 6 view .LVU251
 887 011c DCF80020 		ldr	r2, [ip]
 888 0120 1268     		ldr	r2, [r2]
 889 0122 0021     		movs	r1, #0
 890 0124 D163     		str	r1, [r2, #60]
 891 0126 E0E7     		b	.L70
 892              	.L73:
 118:Core/Src/motor.c ****     }
 893              		.loc 1 118 9 discriminator 2 view .LVU252
 894 0128 0428     		cmp	r0, #4
 895 012a 08D0     		beq	.L93
 118:Core/Src/motor.c ****     }
 896              		.loc 1 118 9 discriminator 4 view .LVU253
 897 012c 0828     		cmp	r0, #8
 898 012e 0DD0     		beq	.L94
 118:Core/Src/motor.c ****     }
 899              		.loc 1 118 9 discriminator 7 view .LVU254
 900 0130 DCF80020 		ldr	r2, [ip]
 901 0134 1268     		ldr	r2, [r2]
 902 0136 9BB2     		uxth	r3, r3
 118:Core/Src/motor.c ****     }
 903              		.loc 1 118 9 discriminator 7 view .LVU255
 904 0138 1364     		str	r3, [r2, #64]
 121:Core/Src/motor.c **** }
 905              		.loc 1 121 12 discriminator 7 view .LVU256
 906 013a 0020     		movs	r0, #0
 907 013c CCE7     		b	.L57
 908              	.L93:
 118:Core/Src/motor.c ****     }
 909              		.loc 1 118 9 discriminator 3 view .LVU257
ARM GAS  C:\Users\jacki\AppData\Local\Temp\cc4hZi9Z.s 			page 22


 910 013e DCF80020 		ldr	r2, [ip]
 911 0142 1268     		ldr	r2, [r2]
 912 0144 9BB2     		uxth	r3, r3
 118:Core/Src/motor.c ****     }
 913              		.loc 1 118 9 discriminator 3 view .LVU258
 914 0146 9363     		str	r3, [r2, #56]
 121:Core/Src/motor.c **** }
 915              		.loc 1 121 12 discriminator 3 view .LVU259
 916 0148 0020     		movs	r0, #0
 917 014a C5E7     		b	.L57
 918              	.L94:
 118:Core/Src/motor.c ****     }
 919              		.loc 1 118 9 discriminator 6 view .LVU260
 920 014c DCF80020 		ldr	r2, [ip]
 921 0150 1268     		ldr	r2, [r2]
 922 0152 9BB2     		uxth	r3, r3
 118:Core/Src/motor.c ****     }
 923              		.loc 1 118 9 discriminator 6 view .LVU261
 924 0154 D363     		str	r3, [r2, #60]
 121:Core/Src/motor.c **** }
 925              		.loc 1 121 12 discriminator 6 view .LVU262
 926 0156 0020     		movs	r0, #0
 927 0158 BEE7     		b	.L57
 928              	.LVL80:
 929              	.L76:
 930              		.cfi_def_cfa_offset 0
 931              		.cfi_restore 4
 932              		.cfi_restore 14
 101:Core/Src/motor.c ****     else if(dcMotor->config == NULL)
 933              		.loc 1 101 16 view .LVU263
 934 015a 0320     		movs	r0, #3
 935              	.LVL81:
 101:Core/Src/motor.c ****     else if(dcMotor->config == NULL)
 936              		.loc 1 101 16 view .LVU264
 937 015c 7047     		bx	lr
 938              	.LVL82:
 939              	.L77:
 103:Core/Src/motor.c ****     else if(speed < dcMotor->config->Min_Speed)
 940              		.loc 1 103 16 view .LVU265
 941 015e 0320     		movs	r0, #3
 942 0160 7047     		bx	lr
 943              	.L78:
 105:Core/Src/motor.c ****     else if(speed > dcMotor->config->Max_Speed)
 944              		.loc 1 105 16 view .LVU266
 945 0162 0120     		movs	r0, #1
 946 0164 7047     		bx	lr
 947              	.L79:
 107:Core/Src/motor.c **** 
 948              		.loc 1 107 16 view .LVU267
 949 0166 0220     		movs	r0, #2
 950              		.loc 1 122 1 view .LVU268
 951 0168 7047     		bx	lr
 952              		.cfi_endproc
 953              	.LFE135:
 955              		.section	.text.Drive_DCMotor_Angle,"ax",%progbits
 956              		.align	1
 957              		.global	Drive_DCMotor_Angle
ARM GAS  C:\Users\jacki\AppData\Local\Temp\cc4hZi9Z.s 			page 23


 958              		.syntax unified
 959              		.thumb
 960              		.thumb_func
 962              	Drive_DCMotor_Angle:
 963              	.LVL83:
 964              	.LFB136:
 123:Core/Src/motor.c **** 
 124:Core/Src/motor.c **** DCMotor_Error Drive_DCMotor_Angle(const DCMotor_Instance_t* dcMotor){
 965              		.loc 1 124 69 is_stmt 1 view -0
 966              		.cfi_startproc
 967              		@ args = 0, pretend = 0, frame = 0
 968              		@ frame_needed = 0, uses_anonymous_args = 0
 969              		@ link register save eliminated.
 125:Core/Src/motor.c **** 
 126:Core/Src/motor.c ****     
 127:Core/Src/motor.c ****     return DC_MOTOR_OK;
 970              		.loc 1 127 5 view .LVU270
 128:Core/Src/motor.c **** }
 971              		.loc 1 128 1 is_stmt 0 view .LVU271
 972 0000 0020     		movs	r0, #0
 973              	.LVL84:
 974              		.loc 1 128 1 view .LVU272
 975 0002 7047     		bx	lr
 976              		.cfi_endproc
 977              	.LFE136:
 979              		.global	__aeabi_f2d
 980              		.global	__aeabi_d2uiz
 981              		.section	.text.Actuator_Init,"ax",%progbits
 982              		.align	1
 983              		.global	Actuator_Init
 984              		.syntax unified
 985              		.thumb
 986              		.thumb_func
 988              	Actuator_Init:
 989              	.LVL85:
 990              	.LFB137:
 129:Core/Src/motor.c **** 
 130:Core/Src/motor.c **** //Actuator Functions
 131:Core/Src/motor.c **** Actuator_Error Actuator_Init(Actuator_Instance_t* act){
 991              		.loc 1 131 55 is_stmt 1 view -0
 992              		.cfi_startproc
 993              		@ args = 0, pretend = 0, frame = 0
 994              		@ frame_needed = 0, uses_anonymous_args = 0
 132:Core/Src/motor.c **** 
 133:Core/Src/motor.c ****     /* Makes sure Actuator Instance Struct and Actuator Config struct are initialzied */
 134:Core/Src/motor.c ****     if(act == NULL)
 995              		.loc 1 134 5 view .LVU274
 996              		.loc 1 134 7 is_stmt 0 view .LVU275
 997 0000 0028     		cmp	r0, #0
 998 0002 57D0     		beq	.L99
 131:Core/Src/motor.c **** 
 999              		.loc 1 131 55 view .LVU276
 1000 0004 2DE9F843 		push	{r3, r4, r5, r6, r7, r8, r9, lr}
 1001              		.cfi_def_cfa_offset 32
 1002              		.cfi_offset 3, -32
 1003              		.cfi_offset 4, -28
 1004              		.cfi_offset 5, -24
ARM GAS  C:\Users\jacki\AppData\Local\Temp\cc4hZi9Z.s 			page 24


 1005              		.cfi_offset 6, -20
 1006              		.cfi_offset 7, -16
 1007              		.cfi_offset 8, -12
 1008              		.cfi_offset 9, -8
 1009              		.cfi_offset 14, -4
 1010 0008 0446     		mov	r4, r0
 135:Core/Src/motor.c ****         return ACTUATOR_INSTANCE_ERROR;
 136:Core/Src/motor.c ****     else if(act->config == NULL)
 1011              		.loc 1 136 10 is_stmt 1 view .LVU277
 1012              		.loc 1 136 16 is_stmt 0 view .LVU278
 1013 000a 8368     		ldr	r3, [r0, #8]
 1014              		.loc 1 136 12 view .LVU279
 1015 000c 002B     		cmp	r3, #0
 1016 000e 53D0     		beq	.L100
 137:Core/Src/motor.c ****         return ACTUATOR_INSTANCE_ERROR;
 138:Core/Src/motor.c **** 
 139:Core/Src/motor.c ****     /* Calculate Timer Frequency */
 140:Core/Src/motor.c ****     uint16_t timFreq = 0;
 1017              		.loc 1 140 5 is_stmt 1 view .LVU280
 1018              	.LVL86:
 141:Core/Src/motor.c ****     timFreq = Get_Freq(HAL_RCC_GetSysClockFreq(), act->Act_Timer->Init.Prescaler, __HAL_TIM_GET_AUT
 1019              		.loc 1 141 5 view .LVU281
 1020              		.loc 1 141 15 is_stmt 0 view .LVU282
 1021 0010 FFF7FEFF 		bl	HAL_RCC_GetSysClockFreq
 1022              	.LVL87:
 1023              		.loc 1 141 54 view .LVU283
 1024 0014 2568     		ldr	r5, [r4]
 1025              		.loc 1 141 83 view .LVU284
 1026 0016 2E68     		ldr	r6, [r5]
 1027 0018 F26A     		ldr	r2, [r6, #44]
 1028              		.loc 1 141 15 view .LVU285
 1029 001a 6968     		ldr	r1, [r5, #4]
 1030 001c FFF7FEFF 		bl	Get_Freq
 1031              	.LVL88:
 1032              		.loc 1 141 13 view .LVU286
 1033 0020 80B2     		uxth	r0, r0
 1034              	.LVL89:
 142:Core/Src/motor.c **** 
 143:Core/Src/motor.c ****     /* Check if timer gives desired frequency */
 144:Core/Src/motor.c ****     if(timFreq != DESIRED_ACT_FREQ){
 1035              		.loc 1 144 5 is_stmt 1 view .LVU287
 1036              		.loc 1 144 7 is_stmt 0 view .LVU288
 1037 0022 3228     		cmp	r0, #50
 1038 0024 41D1     		bne	.L105
 145:Core/Src/motor.c ****         actFreqError = 1;
 146:Core/Src/motor.c ****         return ACTUATOR_FREQ_ERROR;
 147:Core/Src/motor.c ****     }
 148:Core/Src/motor.c **** 
 149:Core/Src/motor.c ****     /* Configure Min and Max counter based on user config */
 150:Core/Src/motor.c ****     act->Min_Cnt = act->config->Min_Pulse / (1 / (DESIRED_ACT_FREQ * pow(10, -6)) / (float)__HAL_TI
 1039              		.loc 1 150 5 is_stmt 1 view .LVU289
 1040              		.loc 1 150 23 is_stmt 0 view .LVU290
 1041 0026 D4F80880 		ldr	r8, [r4, #8]
 1042              		.loc 1 150 31 view .LVU291
 1043 002a B8F80090 		ldrh	r9, [r8]
 1044              		.loc 1 150 92 view .LVU292
 1045 002e F06A     		ldr	r0, [r6, #44]
ARM GAS  C:\Users\jacki\AppData\Local\Temp\cc4hZi9Z.s 			page 25


 1046              	.LVL90:
 1047              		.loc 1 150 85 view .LVU293
 1048 0030 07EE900A 		vmov	s15, r0	@ int
 1049 0034 F8EE677A 		vcvt.f32.u32	s15, s15
 1050 0038 17EE900A 		vmov	r0, s15
 1051 003c FFF7FEFF 		bl	__aeabi_f2d
 1052              	.LVL91:
 1053 0040 0246     		mov	r2, r0
 1054 0042 0B46     		mov	r3, r1
 1055              		.loc 1 150 83 view .LVU294
 1056 0044 1FA1     		adr	r1, .L106+4
 1057 0046 D1E90001 		ldrd	r0, [r1]
 1058 004a FFF7FEFF 		bl	__aeabi_ddiv
 1059              	.LVL92:
 1060 004e 0646     		mov	r6, r0
 1061 0050 0F46     		mov	r7, r1
 1062              		.loc 1 150 43 view .LVU295
 1063 0052 4846     		mov	r0, r9
 1064 0054 FFF7FEFF 		bl	__aeabi_i2d
 1065              	.LVL93:
 1066 0058 3246     		mov	r2, r6
 1067 005a 3B46     		mov	r3, r7
 1068 005c FFF7FEFF 		bl	__aeabi_ddiv
 1069              	.LVL94:
 1070              		.loc 1 150 18 view .LVU296
 1071 0060 FFF7FEFF 		bl	__aeabi_d2uiz
 1072              	.LVL95:
 1073 0064 A081     		strh	r0, [r4, #12]	@ movhi
 151:Core/Src/motor.c ****     act->Max_Cnt = act->config->Max_Pulse / (1 / (DESIRED_ACT_FREQ * pow(10, -6)) / (float)__HAL_TI
 1074              		.loc 1 151 5 is_stmt 1 view .LVU297
 1075              		.loc 1 151 31 is_stmt 0 view .LVU298
 1076 0066 B8F80280 		ldrh	r8, [r8, #2]
 1077              		.loc 1 151 92 view .LVU299
 1078 006a 2B68     		ldr	r3, [r5]
 1079 006c D86A     		ldr	r0, [r3, #44]
 1080              		.loc 1 151 85 view .LVU300
 1081 006e 07EE900A 		vmov	s15, r0	@ int
 1082 0072 F8EE677A 		vcvt.f32.u32	s15, s15
 1083 0076 17EE900A 		vmov	r0, s15
 1084 007a FFF7FEFF 		bl	__aeabi_f2d
 1085              	.LVL96:
 1086 007e 0246     		mov	r2, r0
 1087 0080 0B46     		mov	r3, r1
 1088              		.loc 1 151 83 view .LVU301
 1089 0082 10A1     		adr	r1, .L106+4
 1090 0084 D1E90001 		ldrd	r0, [r1]
 1091 0088 FFF7FEFF 		bl	__aeabi_ddiv
 1092              	.LVL97:
 1093 008c 0646     		mov	r6, r0
 1094 008e 0F46     		mov	r7, r1
 1095              		.loc 1 151 43 view .LVU302
 1096 0090 4046     		mov	r0, r8
 1097 0092 FFF7FEFF 		bl	__aeabi_i2d
 1098              	.LVL98:
 1099 0096 3246     		mov	r2, r6
 1100 0098 3B46     		mov	r3, r7
 1101 009a FFF7FEFF 		bl	__aeabi_ddiv
ARM GAS  C:\Users\jacki\AppData\Local\Temp\cc4hZi9Z.s 			page 26


 1102              	.LVL99:
 1103              		.loc 1 151 18 view .LVU303
 1104 009e FFF7FEFF 		bl	__aeabi_d2uiz
 1105              	.LVL100:
 1106 00a2 E081     		strh	r0, [r4, #14]	@ movhi
 152:Core/Src/motor.c **** 
 153:Core/Src/motor.c ****     return ACTUATOR_OK;
 1107              		.loc 1 153 5 is_stmt 1 view .LVU304
 1108              		.loc 1 153 12 is_stmt 0 view .LVU305
 1109 00a4 0020     		movs	r0, #0
 1110              	.L97:
 154:Core/Src/motor.c **** }
 1111              		.loc 1 154 1 view .LVU306
 1112 00a6 BDE8F883 		pop	{r3, r4, r5, r6, r7, r8, r9, pc}
 1113              	.LVL101:
 1114              	.L105:
 145:Core/Src/motor.c ****         return ACTUATOR_FREQ_ERROR;
 1115              		.loc 1 145 9 is_stmt 1 view .LVU307
 145:Core/Src/motor.c ****         return ACTUATOR_FREQ_ERROR;
 1116              		.loc 1 145 22 is_stmt 0 view .LVU308
 1117 00aa 054B     		ldr	r3, .L106
 1118 00ac 0122     		movs	r2, #1
 1119 00ae 1A70     		strb	r2, [r3]
 146:Core/Src/motor.c ****     }
 1120              		.loc 1 146 9 is_stmt 1 view .LVU309
 146:Core/Src/motor.c ****     }
 1121              		.loc 1 146 16 is_stmt 0 view .LVU310
 1122 00b0 0420     		movs	r0, #4
 1123              	.LVL102:
 146:Core/Src/motor.c ****     }
 1124              		.loc 1 146 16 view .LVU311
 1125 00b2 F8E7     		b	.L97
 1126              	.LVL103:
 1127              	.L99:
 1128              		.cfi_def_cfa_offset 0
 1129              		.cfi_restore 3
 1130              		.cfi_restore 4
 1131              		.cfi_restore 5
 1132              		.cfi_restore 6
 1133              		.cfi_restore 7
 1134              		.cfi_restore 8
 1135              		.cfi_restore 9
 1136              		.cfi_restore 14
 135:Core/Src/motor.c ****     else if(act->config == NULL)
 1137              		.loc 1 135 16 view .LVU312
 1138 00b4 0320     		movs	r0, #3
 1139              	.LVL104:
 1140              		.loc 1 154 1 view .LVU313
 1141 00b6 7047     		bx	lr
 1142              	.LVL105:
 1143              	.L100:
 1144              		.cfi_def_cfa_offset 32
 1145              		.cfi_offset 3, -32
 1146              		.cfi_offset 4, -28
 1147              		.cfi_offset 5, -24
 1148              		.cfi_offset 6, -20
 1149              		.cfi_offset 7, -16
ARM GAS  C:\Users\jacki\AppData\Local\Temp\cc4hZi9Z.s 			page 27


 1150              		.cfi_offset 8, -12
 1151              		.cfi_offset 9, -8
 1152              		.cfi_offset 14, -4
 137:Core/Src/motor.c **** 
 1153              		.loc 1 137 16 view .LVU314
 1154 00b8 0320     		movs	r0, #3
 1155              	.LVL106:
 137:Core/Src/motor.c **** 
 1156              		.loc 1 137 16 view .LVU315
 1157 00ba F4E7     		b	.L97
 1158              	.L107:
 1159 00bc AFF30080 		.align	3
 1160              	.L106:
 1161 00c0 00000000 		.word	.LANCHOR1
 1162 00c4 00000000 		.word	0
 1163 00c8 0088D340 		.word	1087604736
 1164              		.cfi_endproc
 1165              	.LFE137:
 1167              		.section	.text.Drive_Actuator,"ax",%progbits
 1168              		.align	1
 1169              		.global	Drive_Actuator
 1170              		.syntax unified
 1171              		.thumb
 1172              		.thumb_func
 1174              	Drive_Actuator:
 1175              	.LVL107:
 1176              	.LFB138:
 155:Core/Src/motor.c **** 
 156:Core/Src/motor.c **** Actuator_Error Drive_Actuator(const Actuator_Instance_t* act, const uint8_t length){
 1177              		.loc 1 156 84 is_stmt 1 view -0
 1178              		.cfi_startproc
 1179              		@ args = 0, pretend = 0, frame = 0
 1180              		@ frame_needed = 0, uses_anonymous_args = 0
 157:Core/Src/motor.c **** 
 158:Core/Src/motor.c ****     /* Asserting Parameters */
 159:Core/Src/motor.c ****     if(act == NULL)
 1181              		.loc 1 159 5 view .LVU317
 1182              		.loc 1 159 7 is_stmt 0 view .LVU318
 1183 0000 0028     		cmp	r0, #0
 1184 0002 3FD0     		beq	.L116
 1185 0004 0246     		mov	r2, r0
 160:Core/Src/motor.c ****         return ACTUATOR_INSTANCE_ERROR;
 161:Core/Src/motor.c ****     else if(act->config == NULL)
 1186              		.loc 1 161 10 is_stmt 1 view .LVU319
 1187              		.loc 1 161 16 is_stmt 0 view .LVU320
 1188 0006 8068     		ldr	r0, [r0, #8]
 1189              	.LVL108:
 1190              		.loc 1 161 12 view .LVU321
 1191 0008 0028     		cmp	r0, #0
 1192 000a 3DD0     		beq	.L117
 162:Core/Src/motor.c ****         return ACTUATOR_INSTANCE_ERROR;
 163:Core/Src/motor.c ****     else if(length < act->config->Min_Length)
 1193              		.loc 1 163 10 is_stmt 1 view .LVU322
 1194              		.loc 1 163 33 is_stmt 0 view .LVU323
 1195 000c 0379     		ldrb	r3, [r0, #4]	@ zero_extendqisi2
 1196              		.loc 1 163 12 view .LVU324
 1197 000e 8B42     		cmp	r3, r1
ARM GAS  C:\Users\jacki\AppData\Local\Temp\cc4hZi9Z.s 			page 28


 1198 0010 3CD8     		bhi	.L118
 164:Core/Src/motor.c ****         return ACTUATOR_UNDER_RANGE;
 165:Core/Src/motor.c ****     else if(length > act->config->Max_Length)
 1199              		.loc 1 165 10 is_stmt 1 view .LVU325
 1200              		.loc 1 165 33 is_stmt 0 view .LVU326
 1201 0012 4079     		ldrb	r0, [r0, #5]	@ zero_extendqisi2
 1202              		.loc 1 165 12 view .LVU327
 1203 0014 8842     		cmp	r0, r1
 1204 0016 3BD3     		bcc	.L119
 156:Core/Src/motor.c **** 
 1205              		.loc 1 156 84 view .LVU328
 1206 0018 00B5     		push	{lr}
 1207              		.cfi_def_cfa_offset 4
 1208              		.cfi_offset 14, -4
 166:Core/Src/motor.c ****         return ACTUATOR_ABOVE_RANGE;
 167:Core/Src/motor.c **** 
 168:Core/Src/motor.c ****     /* Map length to counter value range */
 169:Core/Src/motor.c ****     uint16_t mappedLength = map(length, act->config->Min_Length, act->config->Max_Length, act->Min_
 1209              		.loc 1 169 5 is_stmt 1 view .LVU329
 1210              		.loc 1 169 29 is_stmt 0 view .LVU330
 1211 001a 49B2     		sxtb	r1, r1
 1212              		.loc 1 169 29 view .LVU331
 1213 001c 5BB2     		sxtb	r3, r3
 1214 001e 40B2     		sxtb	r0, r0
 1215              		.loc 1 169 94 view .LVU332
 1216 0020 B2F80CE0 		ldrh	lr, [r2, #12]
 1217              		.loc 1 169 108 view .LVU333
 1218 0024 B2F80EC0 		ldrh	ip, [r2, #14]
 1219              	.LVL109:
 1220              	.LBB34:
 1221              	.LBI34:
  22:Core/Src/motor.c **** 
 1222              		.loc 1 22 24 is_stmt 1 view .LVU334
 1223              	.LBB35:
  24:Core/Src/motor.c **** 		return x_min;
 1224              		.loc 1 24 2 view .LVU335
  24:Core/Src/motor.c **** 		return x_min;
 1225              		.loc 1 24 4 is_stmt 0 view .LVU336
 1226 0028 9942     		cmp	r1, r3
 1227 002a 0BDD     		ble	.L111
  27:Core/Src/motor.c **** 		return x_max;
 1228              		.loc 1 27 2 is_stmt 1 view .LVU337
  27:Core/Src/motor.c **** 		return x_max;
 1229              		.loc 1 27 4 is_stmt 0 view .LVU338
 1230 002c 8142     		cmp	r1, r0
 1231 002e 11DA     		bge	.L124
  30:Core/Src/motor.c **** 
 1232              		.loc 1 30 2 is_stmt 1 view .LVU339
  30:Core/Src/motor.c **** 
 1233              		.loc 1 30 12 is_stmt 0 view .LVU340
 1234 0030 C91A     		subs	r1, r1, r3
 1235              	.LVL110:
  30:Core/Src/motor.c **** 
 1236              		.loc 1 30 32 view .LVU341
 1237 0032 ACEB0E0C 		sub	ip, ip, lr
 1238              	.LVL111:
  30:Core/Src/motor.c **** 
ARM GAS  C:\Users\jacki\AppData\Local\Temp\cc4hZi9Z.s 			page 29


 1239              		.loc 1 30 21 view .LVU342
 1240 0036 0CFB01F1 		mul	r1, ip, r1
  30:Core/Src/motor.c **** 
 1241              		.loc 1 30 52 view .LVU343
 1242 003a C01A     		subs	r0, r0, r3
 1243              	.LVL112:
  30:Core/Src/motor.c **** 
 1244              		.loc 1 30 43 view .LVU344
 1245 003c B1FBF0F1 		udiv	r1, r1, r0
  30:Core/Src/motor.c **** 
 1246              		.loc 1 30 61 view .LVU345
 1247 0040 0EEB0103 		add	r3, lr, r1
 1248              	.LVL113:
 1249              	.L111:
  30:Core/Src/motor.c **** 
 1250              		.loc 1 30 61 view .LVU346
 1251              	.LBE35:
 1252              	.LBE34:
 170:Core/Src/motor.c ****     
 171:Core/Src/motor.c ****     /* Set New PWM Compare Value */
 172:Core/Src/motor.c ****     __HAL_TIM_SET_COMPARE(act->Act_Timer, act->Channel, mappedLength);
 1253              		.loc 1 172 5 is_stmt 1 view .LVU347
 1254 0044 1079     		ldrb	r0, [r2, #4]	@ zero_extendqisi2
 1255 0046 38B9     		cbnz	r0, .L113
 1256              		.loc 1 172 5 is_stmt 0 discriminator 1 view .LVU348
 1257 0048 1268     		ldr	r2, [r2]
 1258              	.LVL114:
 1259              		.loc 1 172 5 discriminator 1 view .LVU349
 1260 004a 1268     		ldr	r2, [r2]
 1261 004c 9BB2     		uxth	r3, r3
 1262              		.loc 1 172 5 discriminator 1 view .LVU350
 1263 004e 5363     		str	r3, [r2, #52]
 1264              	.LVL115:
 1265              	.L109:
 173:Core/Src/motor.c **** 
 174:Core/Src/motor.c ****     return ACTUATOR_OK;
 175:Core/Src/motor.c **** }
 1266              		.loc 1 175 1 view .LVU351
 1267 0050 5DF804FB 		ldr	pc, [sp], #4
 1268              	.LVL116:
 1269              	.L124:
 1270              	.LBB37:
 1271              	.LBB36:
  28:Core/Src/motor.c **** 
 1272              		.loc 1 28 3 is_stmt 1 view .LVU352
  28:Core/Src/motor.c **** 
 1273              		.loc 1 28 10 is_stmt 0 view .LVU353
 1274 0054 0346     		mov	r3, r0
 1275              	.LVL117:
  28:Core/Src/motor.c **** 
 1276              		.loc 1 28 10 view .LVU354
 1277 0056 F5E7     		b	.L111
 1278              	.LVL118:
 1279              	.L113:
  28:Core/Src/motor.c **** 
 1280              		.loc 1 28 10 view .LVU355
 1281              	.LBE36:
ARM GAS  C:\Users\jacki\AppData\Local\Temp\cc4hZi9Z.s 			page 30


 1282              	.LBE37:
 172:Core/Src/motor.c **** 
 1283              		.loc 1 172 5 discriminator 2 view .LVU356
 1284 0058 0428     		cmp	r0, #4
 1285 005a 07D0     		beq	.L125
 172:Core/Src/motor.c **** 
 1286              		.loc 1 172 5 discriminator 4 view .LVU357
 1287 005c 0828     		cmp	r0, #8
 1288 005e 0BD0     		beq	.L126
 172:Core/Src/motor.c **** 
 1289              		.loc 1 172 5 discriminator 7 view .LVU358
 1290 0060 1268     		ldr	r2, [r2]
 1291              	.LVL119:
 172:Core/Src/motor.c **** 
 1292              		.loc 1 172 5 discriminator 7 view .LVU359
 1293 0062 1268     		ldr	r2, [r2]
 1294 0064 9BB2     		uxth	r3, r3
 172:Core/Src/motor.c **** 
 1295              		.loc 1 172 5 discriminator 7 view .LVU360
 1296 0066 1364     		str	r3, [r2, #64]
 174:Core/Src/motor.c **** }
 1297              		.loc 1 174 12 discriminator 7 view .LVU361
 1298 0068 0020     		movs	r0, #0
 1299 006a F1E7     		b	.L109
 1300              	.LVL120:
 1301              	.L125:
 172:Core/Src/motor.c **** 
 1302              		.loc 1 172 5 discriminator 3 view .LVU362
 1303 006c 1268     		ldr	r2, [r2]
 1304              	.LVL121:
 172:Core/Src/motor.c **** 
 1305              		.loc 1 172 5 discriminator 3 view .LVU363
 1306 006e 1268     		ldr	r2, [r2]
 1307 0070 9BB2     		uxth	r3, r3
 172:Core/Src/motor.c **** 
 1308              		.loc 1 172 5 discriminator 3 view .LVU364
 1309 0072 9363     		str	r3, [r2, #56]
 174:Core/Src/motor.c **** }
 1310              		.loc 1 174 12 discriminator 3 view .LVU365
 1311 0074 0020     		movs	r0, #0
 1312 0076 EBE7     		b	.L109
 1313              	.LVL122:
 1314              	.L126:
 172:Core/Src/motor.c **** 
 1315              		.loc 1 172 5 discriminator 6 view .LVU366
 1316 0078 1268     		ldr	r2, [r2]
 1317              	.LVL123:
 172:Core/Src/motor.c **** 
 1318              		.loc 1 172 5 discriminator 6 view .LVU367
 1319 007a 1268     		ldr	r2, [r2]
 1320 007c 9BB2     		uxth	r3, r3
 172:Core/Src/motor.c **** 
 1321              		.loc 1 172 5 discriminator 6 view .LVU368
 1322 007e D363     		str	r3, [r2, #60]
 174:Core/Src/motor.c **** }
 1323              		.loc 1 174 12 discriminator 6 view .LVU369
 1324 0080 0020     		movs	r0, #0
ARM GAS  C:\Users\jacki\AppData\Local\Temp\cc4hZi9Z.s 			page 31


 1325 0082 E5E7     		b	.L109
 1326              	.LVL124:
 1327              	.L116:
 1328              		.cfi_def_cfa_offset 0
 1329              		.cfi_restore 14
 160:Core/Src/motor.c ****     else if(act->config == NULL)
 1330              		.loc 1 160 16 view .LVU370
 1331 0084 0320     		movs	r0, #3
 1332              	.LVL125:
 160:Core/Src/motor.c ****     else if(act->config == NULL)
 1333              		.loc 1 160 16 view .LVU371
 1334 0086 7047     		bx	lr
 1335              	.LVL126:
 1336              	.L117:
 162:Core/Src/motor.c ****     else if(length < act->config->Min_Length)
 1337              		.loc 1 162 16 view .LVU372
 1338 0088 0320     		movs	r0, #3
 1339 008a 7047     		bx	lr
 1340              	.L118:
 164:Core/Src/motor.c ****     else if(length > act->config->Max_Length)
 1341              		.loc 1 164 16 view .LVU373
 1342 008c 0120     		movs	r0, #1
 1343 008e 7047     		bx	lr
 1344              	.L119:
 166:Core/Src/motor.c **** 
 1345              		.loc 1 166 16 view .LVU374
 1346 0090 0220     		movs	r0, #2
 1347              		.loc 1 175 1 view .LVU375
 1348 0092 7047     		bx	lr
 1349              		.cfi_endproc
 1350              	.LFE138:
 1352              		.section	.bss.actFreqError,"aw",%nobits
 1353              		.set	.LANCHOR1,. + 0
 1356              	actFreqError:
 1357 0000 00       		.space	1
 1358              		.section	.bss.servoFreqError,"aw",%nobits
 1359              		.set	.LANCHOR0,. + 0
 1362              	servoFreqError:
 1363 0000 00       		.space	1
 1364              		.text
 1365              	.Letext0:
 1366              		.file 2 "c:\\users\\jacki\\appdata\\roaming\\code\\user\\globalstorage\\bmd.stm32-for-vscode\\@xpa
 1367              		.file 3 "c:\\users\\jacki\\appdata\\roaming\\code\\user\\globalstorage\\bmd.stm32-for-vscode\\@xpa
 1368              		.file 4 "Drivers/CMSIS/Device/ST/STM32F4xx/Include/stm32f446xx.h"
 1369              		.file 5 "Drivers/STM32F4xx_HAL_Driver/Inc/stm32f4xx_hal_def.h"
 1370              		.file 6 "Drivers/STM32F4xx_HAL_Driver/Inc/stm32f4xx_hal_dma.h"
 1371              		.file 7 "Drivers/STM32F4xx_HAL_Driver/Inc/stm32f4xx_hal_tim.h"
 1372              		.file 8 "Core/Inc/motor.h"
 1373              		.file 9 "Drivers/STM32F4xx_HAL_Driver/Inc/stm32f4xx_hal_rcc.h"
ARM GAS  C:\Users\jacki\AppData\Local\Temp\cc4hZi9Z.s 			page 32


DEFINED SYMBOLS
                            *ABS*:0000000000000000 motor.c
C:\Users\jacki\AppData\Local\Temp\cc4hZi9Z.s:20     .text.Get_Freq:0000000000000000 $t
C:\Users\jacki\AppData\Local\Temp\cc4hZi9Z.s:25     .text.Get_Freq:0000000000000000 Get_Freq
C:\Users\jacki\AppData\Local\Temp\cc4hZi9Z.s:51     .text.Drive_Servo:0000000000000000 $t
C:\Users\jacki\AppData\Local\Temp\cc4hZi9Z.s:57     .text.Drive_Servo:0000000000000000 Drive_Servo
C:\Users\jacki\AppData\Local\Temp\cc4hZi9Z.s:375    .text.Drive_Servo:00000000000000f4 $d
C:\Users\jacki\AppData\Local\Temp\cc4hZi9Z.s:380    .text.Servo_Init:0000000000000000 $t
C:\Users\jacki\AppData\Local\Temp\cc4hZi9Z.s:386    .text.Servo_Init:0000000000000000 Servo_Init
C:\Users\jacki\AppData\Local\Temp\cc4hZi9Z.s:506    .text.Servo_Init:0000000000000070 $d
C:\Users\jacki\AppData\Local\Temp\cc4hZi9Z.s:514    .text.DCMotor_Init:0000000000000000 $t
C:\Users\jacki\AppData\Local\Temp\cc4hZi9Z.s:520    .text.DCMotor_Init:0000000000000000 DCMotor_Init
C:\Users\jacki\AppData\Local\Temp\cc4hZi9Z.s:635    .text.DCMotor_Init:000000000000007c $d
C:\Users\jacki\AppData\Local\Temp\cc4hZi9Z.s:640    .text.Drive_DCMotor:0000000000000000 $t
C:\Users\jacki\AppData\Local\Temp\cc4hZi9Z.s:646    .text.Drive_DCMotor:0000000000000000 Drive_DCMotor
C:\Users\jacki\AppData\Local\Temp\cc4hZi9Z.s:956    .text.Drive_DCMotor_Angle:0000000000000000 $t
C:\Users\jacki\AppData\Local\Temp\cc4hZi9Z.s:962    .text.Drive_DCMotor_Angle:0000000000000000 Drive_DCMotor_Angle
C:\Users\jacki\AppData\Local\Temp\cc4hZi9Z.s:982    .text.Actuator_Init:0000000000000000 $t
C:\Users\jacki\AppData\Local\Temp\cc4hZi9Z.s:988    .text.Actuator_Init:0000000000000000 Actuator_Init
C:\Users\jacki\AppData\Local\Temp\cc4hZi9Z.s:1161   .text.Actuator_Init:00000000000000c0 $d
C:\Users\jacki\AppData\Local\Temp\cc4hZi9Z.s:1168   .text.Drive_Actuator:0000000000000000 $t
C:\Users\jacki\AppData\Local\Temp\cc4hZi9Z.s:1174   .text.Drive_Actuator:0000000000000000 Drive_Actuator
C:\Users\jacki\AppData\Local\Temp\cc4hZi9Z.s:1356   .bss.actFreqError:0000000000000000 actFreqError
C:\Users\jacki\AppData\Local\Temp\cc4hZi9Z.s:1357   .bss.actFreqError:0000000000000000 $d
C:\Users\jacki\AppData\Local\Temp\cc4hZi9Z.s:1362   .bss.servoFreqError:0000000000000000 servoFreqError
C:\Users\jacki\AppData\Local\Temp\cc4hZi9Z.s:1363   .bss.servoFreqError:0000000000000000 $d

UNDEFINED SYMBOLS
HAL_RCC_GetSysClockFreq
__aeabi_i2d
__aeabi_ddiv
__aeabi_d2f
__aeabi_f2d
__aeabi_d2uiz
